(lp0
(S'savey'
p1
I1
tp2
a(S'pardon'
p3
I1
tp4
a(S'giorgio'
p5
I1
tp6
a(S'methink'
p7
I1
tp8
a(S'bear'
p9
I1
tp10
a(S'monte'
p11
I1
tp12
a(S'foul'
p13
I1
tp14
a(S'four'
p15
I1
tp16
a(S'nwa'
p17
I1
tp18
a(S'goin\xc3\xa2\xc2\x80\xc2\x99'
p19
I1
tp20
a(S'woody'
p21
I1
tp22
a(S'dere'
p23
I1
tp24
a(S'i\xc3\xa2\xc2\x80\xc2\xa6'
p25
I1
tp26
a(S'dri-fit'
p27
I1
tp28
a(S'disick'
p29
I1
tp30
a(S'spin'
p31
I1
tp32
a(S'tweet'
p33
I1
tp34
a(S'edward'
p35
I1
tp36
a(S'abra'
p37
I1
tp38
a(S'dukes'
p39
I1
tp40
a(S'sasco'
p41
I1
tp42
a(S'worth'
p43
I1
tp44
a(S'loon'
p45
I1
tp46
a(S'kemet'
p47
I1
tp48
a(S'pantha'
p49
I1
tp50
a(S'trojan'
p51
I1
tp52
a(S'omoy'
p53
I1
tp54
a(S'gimmie'
p55
I1
tp56
a(S'linkin'
p57
I1
tp58
a(S'every'
p59
I1
tp60
a(S'ava'
p61
I1
tp62
a(S'k-r-s'
p63
I1
tp64
a(S'screaming'
p65
I1
tp66
a(S'terot'
p67
I1
tp68
a(S'perspective'
p69
I1
tp70
a(S'upn'
p71
I1
tp72
a(S'champale'
p73
I1
tp74
a(S'prize'
p75
I1
tp76
a(S'beam'
p77
I1
tp78
a(S'georgie'
p79
I1
tp80
a(S'cmb'
p81
I1
tp82
a(S'bugatti'
p83
I1
tp84
a(S'heeeeyyyy'
p85
I1
tp86
a(S'ups'
p87
I1
tp88
a(S'babygirl'
p89
I1
tp90
a(S'vladimir'
p91
I1
tp92
a(S'betsy'
p93
I1
tp94
a(S'miller'
p95
I1
tp96
a(S'performin'
p97
I1
tp98
a(S'lavender'
p99
I1
tp100
a(S'slr'
p101
I1
tp102
a(S'akbar'
p103
I1
tp104
a(S'monster'
p105
I1
tp106
a(S'noah\xc3\xa2\xc2\x80\xc2\xa6'
p107
I1
tp108
a(S'minto'
p109
I1
tp110
a(S'inglewood'
p111
I1
tp112
a(S'ruthless'
p113
I1
tp114
a(S'didn\xc3\xa2\xc2\x80\xc2\x99t'
p115
I1
tp116
a(S'hp'
p117
I1
tp118
a(S'\xc3\xa2\xc2\x80\xc2\x98ye'
p119
I1
tp120
a(S'liberty'
p121
I1
tp122
a(S'cinque'
p123
I1
tp124
a(S'ashford'
p125
I1
tp126
a(S'fossil'
p127
I1
tp128
a(S'churches'
p129
I1
tp130
a(S'net'
p131
I1
tp132
a(S'felicia'
p133
I1
tp134
a(S'jessie'
p135
I1
tp136
a(S'dow'
p137
I1
tp138
a(S'herb'
p139
I1
tp140
a(S'deadbeat'
p141
I1
tp142
a(S'tntn'
p143
I1
tp144
a(S'ad-lib'
p145
I1
tp146
a(S'alongwaytogo'
p147
I1
tp148
a(S'tatum'
p149
I1
tp150
a(S'melbourne'
p151
I1
tp152
a(S'l-e-p'
p153
I1
tp154
a(S'daughter'
p155
I1
tp156
a(S'aks'
p157
I1
tp158
a(S'study'
p159
I1
tp160
a(S'puttin\xc3\xa2\xc2\x80\xc2\x99'
p161
I1
tp162
a(S'della'
p163
I1
tp164
a(S'god\xc3\xa2\xc2\x80\xc2\x99s'
p165
I1
tp166
a(S'riverboat'
p167
I1
tp168
a(S'secure'
p169
I1
tp170
a(S'pms\xc3\xa2\xc2\x80\xc2\x99ing'
p171
I1
tp172
a(S'laetitia'
p173
I1
tp174
a(S'julie'
p175
I1
tp176
a(S'strap'
p177
I1
tp178
a(S'hahahahah'
p179
I1
tp180
a(S'pound'
p181
I1
tp182
a(S'stern'
p183
I1
tp184
a(S'schwinn'
p185
I1
tp186
a(S'sarah'
p187
I1
tp188
a(S'dominicano'
p189
I1
tp190
a(S'riffed'
p191
I1
tp192
a(S'farly'
p193
I1
tp194
a(S'saran'
p195
I1
tp196
a(S'boulder'
p197
I1
tp198
a(S'beetles'
p199
I1
tp200
a(S'just-ice'
p201
I1
tp202
a(S'wordplay'
p203
I1
tp204
a(S'kan-man'
p205
I1
tp206
a(S'rwanda'
p207
I1
tp208
a(S'rolls-royce'
p209
I1
tp210
a(S'indiana'
p211
I1
tp212
a(S'kalidjusome'
p213
I1
tp214
a(S'harden'
p215
I1
tp216
a(S'musa'
p217
I1
tp218
a(S'odell'
p219
I1
tp220
a(S'haha'
p221
I1
tp222
a(S'jordys'
p223
I1
tp224
a(S'holm'
p225
I1
tp226
a(S'lazarus'
p227
I1
tp228
a(S'adult'
p229
I1
tp230
a(S'nique'
p231
I1
tp232
a(S'off+'
p233
I1
tp234
a(S'pasha'
p235
I1
tp236
a(S'huh..'
p237
I1
tp238
a(S'hutch'
p239
I1
tp240
a(S'room'
p241
I1
tp242
a(S'sway'
p243
I1
tp244
a(S'work'
p245
I1
tp246
a(S'somethin\xc3\xa2\xc2\x80\xc2\x99'
p247
I1
tp248
a(S'ms'
p249
I1
tp250
a(S'akin'
p251
I1
tp252
a(S'braggin'
p253
I1
tp254
a(S'hansen'
p255
I1
tp256
a(S'clearport'
p257
I1
tp258
a(S'bell'
p259
I1
tp260
a(S'owah-owah-owah-owah'
p261
I1
tp262
a(S'gordy'
p263
I1
tp264
a(S'paparazzi'
p265
I1
tp266
a(S'heartless'
p267
I1
tp268
a(S'honey'
p269
I1
tp270
a(S'ready'
p271
I1
tp272
a(S'marco'
p273
I1
tp274
a(S'esther'
p275
I1
tp276
a(S'+in'
p277
I1
tp278
a(S'bondin\xc3\xa2\xc2\x80\xc2\x99'
p279
I1
tp280
a(S'motion'
p281
I1
tp282
a(S'hol'
p283
I1
tp284
a(S'song'
p285
I1
tp286
a(S'nucky'
p287
I1
tp288
a(S'doolittle'
p289
I1
tp290
a(S'disappear'
p291
I1
tp292
a(S'rookie'
p293
I1
tp294
a(S'main'
p295
I1
tp296
a(S'ronnie'
p297
I1
tp298
a(S'gamble'
p299
I1
tp300
a(S'pizza'
p301
I1
tp302
a(S'mueller'
p303
I1
tp304
a(S'elizabeth'
p305
I1
tp306
a(S'beauty'
p307
I1
tp308
a(S'brrrrrrrrap'
p309
I1
tp310
a(S'lab'
p311
I1
tp312
a(S'pimps'
p313
I1
tp314
a(S'egos'
p315
I1
tp316
a(S'shaq'
p317
I1
tp318
a(S'hodges'
p319
I1
tp320
a(S'curiosity'
p321
I1
tp322
a(S'cain'
p323
I1
tp324
a(S'girbauds'
p325
I1
tp326
a(S'ovo'
p327
I1
tp328
a(S'royce'
p329
I1
tp330
a(S'vera'
p331
I1
tp332
a(S'vance'
p333
I1
tp334
a(S'amin'
p335
I1
tp336
a(S'k-west'
p337
I1
tp338
a(S'smack'
p339
I1
tp340
a(S'greet'
p341
I1
tp342
a(S'harley'
p343
I1
tp344
a(S'owls'
p345
I1
tp346
a(S'mulsanne'
p347
I1
tp348
a(S'ultimate'
p349
I1
tp350
a(S'narcos'
p351
I1
tp352
a(S'midas'
p353
I1
tp354
a(S'chandon'
p355
I1
tp356
a(S'travellin'
p357
I1
tp358
a(S'wine'
p359
I1
tp360
a(S'modesty'
p361
I1
tp362
a(S'flynns'
p363
I1
tp364
a(S'a-v-entador'
p365
I1
tp366
a(S'enter'
p367
I1
tp368
a(S'fifi'
p369
I1
tp370
a(S'zen'
p371
I1
tp372
a(S'visualizin\xc3\xa2\xc2\x80\xc2\x99'
p373
I1
tp374
a(S'vezzo'
p375
I1
tp376
a(S'bathing'
p377
I1
tp378
a(S'nets'
p379
I1
tp380
a(S'bubbles'
p381
I1
tp382
a(S'ono'
p383
I1
tp384
a(S'ahhh'
p385
I1
tp386
a(S'double-0-87'
p387
I1
tp388
a(S'kaepernick'
p389
I1
tp390
a(S'asiatic'
p391
I1
tp392
a(S'pe-ew'
p393
I1
tp394
a(S'bently'
p395
I1
tp396
a(S'pritchard'
p397
I1
tp398
a(S'crew'
p399
I1
tp400
a(S'romeo'
p401
I1
tp402
a(S'whips'
p403
I1
tp404
a(S'victorious'
p405
I1
tp406
a(S'drops'
p407
I1
tp408
a(S'r-r-r-right'
p409
I1
tp410
a(S'prius'
p411
I1
tp412
a(S'electra'
p413
I1
tp414
a(S'versus'
p415
I1
tp416
a(S'aston'
p417
I1
tp418
a(S'westlake'
p419
I1
tp420
a(S'thee'
p421
I1
tp422
a(S'lox'
p423
I1
tp424
a(S'birth'
p425
I1
tp426
a(S'band'
p427
I1
tp428
a(S'godspeed'
p429
I1
tp430
a(S'parkinson'
p431
I1
tp432
a(S'letters'
p433
I1
tp434
a(S'brothers'
p435
I1
tp436
a(S'sixteen'
p437
I1
tp438
a(S'bank'
p439
I1
tp440
a(S'columbine'
p441
I1
tp442
a(S'uhhh..'
p443
I1
tp444
a(S'ruth'
p445
I1
tp446
a(S'alex'
p447
I1
tp448
a(S'\xc3\xa2\xc2\x80\xc2\x99til'
p449
I1
tp450
a(S'kilos'
p451
I1
tp452
a(S'alexis'
p453
I1
tp454
a(S'drolo'
p455
I1
tp456
a(S'victory'
p457
I1
tp458
a(S'lauer'
p459
I1
tp460
a(S'g.m'
p461
I1
tp462
a(S'stanky'
p463
I1
tp464
a(S'lon-chicka-lonnie'
p465
I1
tp466
a(S'payton'
p467
I1
tp468
a(S'angola'
p469
I1
tp470
a(S'nysl'
p471
I1
tp472
a(S'lookin\xc3\xa2\xc2\x80\xc2\x99'
p473
I1
tp474
a(S'magneto'
p475
I1
tp476
a(S'mace'
p477
I1
tp478
a(S'thelma'
p479
I1
tp480
a(S'milan'
p481
I1
tp482
a(S'forgot'
p483
I1
tp484
a(S'navy'
p485
I1
tp486
a(S'whit'
p487
I1
tp488
a(S"'ooooooooooh"
p489
I1
tp490
a(S'jimbo'
p491
I1
tp492
a(S'rhames'
p493
I1
tp494
a(S'unholy'
p495
I1
tp496
a(S'open'
p497
I1
tp498
a(S'dewitt'
p499
I1
tp500
a(S'diesel'
p501
I1
tp502
a(S'forty'
p503
I1
tp504
a(S'girbaud'
p505
I1
tp506
a(S'daniel'
p507
I1
tp508
a(S'reader'
p509
I1
tp510
a(S'uh-um'
p511
I1
tp512
a(S'surprise'
p513
I1
tp514
a(S'hollerin'
p515
I1
tp516
a(S'og\xc3\xa2\xc2\x80\xc2\x99s'
p517
I1
tp518
a(S'd-block'
p519
I1
tp520
a(S'dracula'
p521
I1
tp522
a(S'rozay'
p523
I1
tp524
a(S'free'
p525
I1
tp526
a(S'barried'
p527
I1
tp528
a(S'golddigger'
p529
I1
tp530
a(S'rain'
p531
I1
tp532
a(S'balmain'
p533
I1
tp534
a(S'mutilate'
p535
I1
tp536
a(S'harriet'
p537
I1
tp538
a(S'soundcloud'
p539
I1
tp540
a(S'atf'
p541
I1
tp542
a(S'ate'
p543
I1
tp544
a(S'jiggaman'
p545
I1
tp546
a(S'racquetball'
p547
I1
tp548
a(S'swaghili'
p549
I1
tp550
a(S'atm'
p551
I1
tp552
a(S'dix-ie'
p553
I1
tp554
a(S'loui'
p555
I1
tp556
a(S'heck'
p557
I1
tp558
a(S'prodigal'
p559
I1
tp560
a(S'iceman'
p561
I1
tp562
a(S'tijuana'
p563
I1
tp564
a(S'montessori'
p565
I1
tp566
a(S'rang'
p567
I1
tp568
a(S'pyrex'
p569
I1
tp570
a(S'grade'
p571
I1
tp572
a(S'system'
p573
I1
tp574
a(S'fantasy'
p575
I1
tp576
a(S'\xc3\xa2\xc2\x80\xc2\x9caye'
p577
I1
tp578
a(S'teairra'
p579
I1
tp580
a(S'griff'
p581
I1
tp582
a(S'force'
p583
I1
tp584
a(S'rackson'
p585
I1
tp586
a(S'blunts'
p587
I1
tp588
a(S'feb.'
p589
I1
tp590
a(S'mercury'
p591
I1
tp592
a(S'olds'
p593
I1
tp594
a(S'cosbys'
p595
I1
tp596
a(S'top'
p597
I1
tp598
a(S'fml'
p599
I1
tp600
a(S'rony'
p601
I1
tp602
a(S'ton'
p603
I1
tp604
a(S'hustlin'
p605
I1
tp606
a(S'mistic'
p607
I1
tp608
a(S'carrey'
p609
I1
tp610
a(S'urban'
p611
I1
tp612
a(S'murder'
p613
I1
tp614
a(S'flatts'
p615
I1
tp616
a(S'daniels'
p617
I1
tp618
a(S'wisdom'
p619
I1
tp620
a(S'western'
p621
I1
tp622
a(S'somewhat'
p623
I1
tp624
a(S'nahh'
p625
I1
tp626
a(S'benz-es'
p627
I1
tp628
a(S'golden'
p629
I1
tp630
a(S'toronto'
p631
I1
tp632
a(S'nail'
p633
I1
tp634
a(S'trel'
p635
I1
tp636
a(S'\xc3\xa2\xc2\x80\xc2\x9ctold'
p637
I1
tp638
a(S'tree'
p639
I1
tp640
a(S'prayin'
p641
I1
tp642
a(S'project'
p643
I1
tp644
a(S'matter'
p645
I1
tp646
a(S'silly'
p647
I1
tp648
a(S'iron'
p649
I1
tp650
a(S'aiight'
p651
I1
tp652
a(S'carriages'
p653
I1
tp654
a(S'irob'
p655
I1
tp656
a(S'powers'
p657
I1
tp658
a(S'minus'
p659
I1
tp660
a(S'namath'
p661
I1
tp662
a(S'chaka'
p663
I1
tp664
a(S'yachty'
p665
I1
tp666
a(S'ichabod'
p667
I1
tp668
a(S'runner'
p669
I1
tp670
a(S'marnier'
p671
I1
tp672
a(S'yancey'
p673
I1
tp674
a(S'caleb'
p675
I1
tp676
a(S'craven'
p677
I1
tp678
a(S'joakim'
p679
I1
tp680
a(S'lbc'
p681
I1
tp682
a(S'serato'
p683
I1
tp684
a(S'bonny'
p685
I1
tp686
a(S'botswana'
p687
I1
tp688
a(S'giovanni'
p689
I1
tp690
a(S'heff'
p691
I1
tp692
a(S'torla'
p693
I1
tp694
a(S'cardiac'
p695
I1
tp696
a(S'flippin'
p697
I1
tp698
a(S'divas'
p699
I1
tp700
a(S'snow'
p701
I1
tp702
a(S'brandon'
p703
I1
tp704
a(S'okie'
p705
I1
tp706
a(S'snoh'
p707
I1
tp708
a(S'luxury'
p709
I1
tp710
a(S'season'
p711
I1
tp712
a(S'moanin'
p713
I1
tp714
a(S'harrold'
p715
I1
tp716
a(S'kimbo'
p717
I1
tp718
a(S'bethune'
p719
I1
tp720
a(S'gravy'
p721
I1
tp722
a(S'cannes'
p723
I1
tp724
a(S'lion'
p725
I1
tp726
a(S'rappers'
p727
I1
tp728
a(S'sue'
p729
I1
tp730
a(S'psss'
p731
I1
tp732
a(S'shabazz'
p733
I1
tp734
a(S'marie'
p735
I1
tp736
a(S'flamin'
p737
I1
tp738
a(S'grove'
p739
I1
tp740
a(S'doa'
p741
I1
tp742
a(S'ta-nehisis'
p743
I1
tp744
a(S'producin'
p745
I1
tp746
a(S'waller'
p747
I1
tp748
a(S'mayfield'
p749
I1
tp750
a(S'akeem'
p751
I1
tp752
a(S'tech'
p753
I1
tp754
a(S'zordon'
p755
I1
tp756
a(S'attucks'
p757
I1
tp758
a(S'scream'
p759
I1
tp760
a(S'eazy-e'
p761
I1
tp762
a(S'bomb'
p763
I1
tp764
a(S'mitten'
p765
I1
tp766
a(S'pope'
p767
I1
tp768
a(S'tequila'
p769
I1
tp770
a(S'crowe'
p771
I1
tp772
a(S'bonnie'
p773
I1
tp774
a(S'c3po'
p775
I1
tp776
a(S'liza'
p777
I1
tp778
a(S'chandelier'
p779
I1
tp780
a(S'radio'
p781
I1
tp782
a(S'porkin'
p783
I1
tp784
a(S'chaundon'
p785
I1
tp786
a(S'doper'
p787
I1
tp788
a(S'orleans'
p789
I1
tp790
a(S'goblin'
p791
I1
tp792
a(S"'pops"
p793
I1
tp794
a(S'dawn'
p795
I1
tp796
a(S'cleanse'
p797
I1
tp798
a(S'putin'
p799
I1
tp800
a(S'cupid'
p801
I1
tp802
a(S'tch-a-ch-tchk'
p803
I1
tp804
a(S'folks'
p805
I1
tp806
a(S'mischievous'
p807
I1
tp808
a(S'rice'
p809
I1
tp810
a(S"'no"
p811
I1
tp812
a(S'fontaine'
p813
I1
tp814
a(S'blinking'
p815
I1
tp816
a(S'meditate'
p817
I1
tp818
a(S'christopher'
p819
I1
tp820
a(S'report'
p821
I1
tp822
a(S'bloaw'
p823
I1
tp824
a(S'baw'
p825
I1
tp826
a(S'fields'
p827
I1
tp828
a(S'howser'
p829
I1
tp830
a(S'illegitimate'
p831
I1
tp832
a(S'bag'
p833
I1
tp834
a(S'bomaye'
p835
I1
tp836
a(S'piggy'
p837
I1
tp838
a(S'questionin'
p839
I1
tp840
a(S'gluteus'
p841
I1
tp842
a(S'ghoul'
p843
I1
tp844
a(S'bleu'
p845
I1
tp846
a(S'blew'
p847
I1
tp848
a(S'shocker'
p849
I1
tp850
a(S'questions'
p851
I1
tp852
a(S'benet'
p853
I1
tp854
a(S"o'donnell"
p855
I1
tp856
a(S'pinot'
p857
I1
tp858
a(S'goodnight'
p859
I1
tp860
a(S'biancis'
p861
I1
tp862
a(S'clem'
p863
I1
tp864
a(S'armageddon'
p865
I1
tp866
a(S'noodles'
p867
I1
tp868
a(S'matterhorn'
p869
I1
tp870
a(S'brazil'
p871
I1
tp872
a(S'instance'
p873
I1
tp874
a(S'whatup'
p875
I1
tp876
a(S'gentleman'
p877
I1
tp878
a(S'consequence'
p879
I1
tp880
a(S'apologies\xc3\xa2\xc2\x80\xc2\x9d'
p881
I1
tp882
a(S'suge'
p883
I1
tp884
a(S'tippin'
p885
I1
tp886
a(S'keisha'
p887
I1
tp888
a(S'whassup'
p889
I1
tp890
a(S'runaway'
p891
I1
tp892
a(S'manolo'
p893
I1
tp894
a(S'g\xc3\xa2\xc2\x80\xc2\x99s'
p895
I1
tp896
a(S'wa'
p897
I1
tp898
a(S'rims'
p899
I1
tp900
a(S'fetty'
p901
I1
tp902
a(S'aquarius'
p903
I1
tp904
a(S'mayne'
p905
I1
tp906
a(S'wi'
p907
I1
tp908
a(S'poo-da'
p909
I1
tp910
a(S'harvard'
p911
I1
tp912
a(S'nahhh'
p913
I1
tp914
a(S'here'
p915
I1
tp916
a(S'stu'
p917
I1
tp918
a(S'accident'
p919
I1
tp920
a(S'complainin'
p921
I1
tp922
a(S'brat'
p923
I1
tp924
a(S'himalayas'
p925
I1
tp926
a(S'sparta'
p927
I1
tp928
a(S'jelly'
p929
I1
tp930
a(S'incense'
p931
I1
tp932
a(S'russia'
p933
I1
tp934
a(S'coe'
p935
I1
tp936
a(S'himalayan'
p937
I1
tp938
a(S'enzo'
p939
I1
tp940
a(S'gwen'
p941
I1
tp942
a(S'toni'
p943
I1
tp944
a(S'trunk'
p945
I1
tp946
a(S'goodship'
p947
I1
tp948
a(S'b-boy'
p949
I1
tp950
a(S'zippidy-doo-dah'
p951
I1
tp952
a(S'chlorophyll'
p953
I1
tp954
a(S'arsenio'
p955
I1
tp956
a(S'jays'
p957
I1
tp958
a(S"what'cha"
p959
I1
tp960
a(S'union'
p961
I1
tp962
a(S'langston'
p963
I1
tp964
a(S'buffett'
p965
I1
tp966
a(S'kojak'
p967
I1
tp968
a(S'savin'
p969
I1
tp970
a(S'cognac'
p971
I1
tp972
a(S'communion'
p973
I1
tp974
a(S'idol'
p975
I1
tp976
a(S'cub'
p977
I1
tp978
a(S'dry'
p979
I1
tp980
a(S'redrum'
p981
I1
tp982
a(S'uh-oh'
p983
I1
tp984
a(S'ariana'
p985
I1
tp986
a(S'speedin'
p987
I1
tp988
a(S'buyin'
p989
I1
tp990
a(S'lift'
p991
I1
tp992
a(S'stiltest'
p993
I1
tp994
a(S'chill'
p995
I1
tp996
a(S'c-o-double-m-o-n'
p997
I1
tp998
a(S'sly'
p999
I1
tp1000
a(S'jams'
p1001
I1
tp1002
a(S'kentucky'
p1003
I1
tp1004
a(S'hidin'
p1005
I1
tp1006
a(S'carlito'
p1007
I1
tp1008
a(S'freaknit'
p1009
I1
tp1010
a(S'd.o'
p1011
I1
tp1012
a(S"mo'fucker"
p1013
I1
tp1014
a(S'sting'
p1015
I1
tp1016
a(S'iv'
p1017
I1
tp1018
a(S'australia'
p1019
I1
tp1020
a(S'traffic'
p1021
I1
tp1022
a(S'magnificent'
p1023
I1
tp1024
a(S'waldo'
p1025
I1
tp1026
a(S'things'
p1027
I1
tp1028
a(S'mothafuckas'
p1029
I1
tp1030
a(S'kanyeez'
p1031
I1
tp1032
a(S'markyiana'
p1033
I1
tp1034
a(S'g-a-t'
p1035
I1
tp1036
a(S'whodie'
p1037
I1
tp1038
a(S'descend'
p1039
I1
tp1040
a(S'sat'
p1041
I1
tp1042
a(S'yung'
p1043
I1
tp1044
a(S'hank'
p1045
I1
tp1046
a(S'fuss'
p1047
I1
tp1048
a(S'd.r.a.m'
p1049
I1
tp1050
a(S'hang'
p1051
I1
tp1052
a(S'evil'
p1053
I1
tp1054
a(S'delight'
p1055
I1
tp1056
a(S'raza'
p1057
I1
tp1058
a(S'elly'
p1059
I1
tp1060
a(S'i-'
p1061
I1
tp1062
a(S'realness'
p1063
I1
tp1064
a(S'i.'
p1065
I1
tp1066
a(S'opportunity'
p1067
I1
tp1068
a(S'tune'
p1069
I1
tp1070
a(S'datsun'
p1071
I1
tp1072
a(S'dylan'
p1073
I1
tp1074
a(S'rufio'
p1075
I1
tp1076
a(S'lamont'
p1077
I1
tp1078
a(S'deal'
p1079
I1
tp1080
a(S'burgers'
p1081
I1
tp1082
a(S'dumber'
p1083
I1
tp1084
a(S'romo'
p1085
I1
tp1086
a(S'loch'
p1087
I1
tp1088
a(S'gagosian'
p1089
I1
tp1090
a(S'yonc\xc3\x83\xc2\xa9'
p1091
I1
tp1092
a(S'letterman'
p1093
I1
tp1094
a(S'sentence'
p1095
I1
tp1096
a(S'sleepy'
p1097
I1
tp1098
a(S'rothkos'
p1099
I1
tp1100
a(S'mig'
p1101
I1
tp1102
a(S'campbell'
p1103
I1
tp1104
a(S'yes'
p1105
I1
tp1106
a(S'citgo'
p1107
I1
tp1108
a(S'tattooed'
p1109
I1
tp1110
a(S'\xc3\xa2\xc2\x80\xc2\x99till'
p1111
I1
tp1112
a(S'eli'
p1113
I1
tp1114
a(S'hal'
p1115
I1
tp1116
a(S'n.b.a'
p1117
I1
tp1118
a(S'cherry'
p1119
I1
tp1120
a(S'seem'
p1121
I1
tp1122
a(S'jeweler'
p1123
I1
tp1124
a(S'be-nign'
p1125
I1
tp1126
a(S'heim-lich'
p1127
I1
tp1128
a(S'donda'
p1129
I1
tp1130
a(S"bring'em"
p1131
I1
tp1132
a(S'mayo'
p1133
I1
tp1134
a(S'daytona'
p1135
I1
tp1136
a(S'fraud'
p1137
I1
tp1138
a(S'bassey'
p1139
I1
tp1140
a(S'renta'
p1141
I1
tp1142
a(S'jekyll'
p1143
I1
tp1144
a(S'g-in'
p1145
I1
tp1146
a(S'background'
p1147
I1
tp1148
a(S'fishburn'
p1149
I1
tp1150
a(S'cape'
p1151
I1
tp1152
a(S'highly'
p1153
I1
tp1154
a(S'a-doo-doo-doo-doo-doo-doo'
p1155
I1
tp1156
a(S'stretchin'
p1157
I1
tp1158
a(S'martha'
p1159
I1
tp1160
a(S'cooler'
p1161
I1
tp1162
a(S'masi'
p1163
I1
tp1164
a(S'bitchin-ass'
p1165
I1
tp1166
a(S'orlando'
p1167
I1
tp1168
a(S'pencil'
p1169
I1
tp1170
a(S'steph'
p1171
I1
tp1172
a(S'gandhi'
p1173
I1
tp1174
a(S'nudy'
p1175
I1
tp1176
a(S'notorious'
p1177
I1
tp1178
a(S'security'
p1179
I1
tp1180
a(S'denver'
p1181
I1
tp1182
a(S'tripper'
p1183
I1
tp1184
a(S'excerpt'
p1185
I1
tp1186
a(S'stardust'
p1187
I1
tp1188
a(S'escape'
p1189
I1
tp1190
a(S'gardley'
p1191
I1
tp1192
a(S'cypress'
p1193
I1
tp1194
a(S'tripped'
p1195
I1
tp1196
a(S'kit-kat'
p1197
I1
tp1198
a(S'anita'
p1199
I1
tp1200
a(S'megan'
p1201
I1
tp1202
a(S'coppin\xc3\xa2\xc2\x80\xc2\x99'
p1203
I1
tp1204
a(S'for'
p1205
I1
tp1206
a(S'philando'
p1207
I1
tp1208
a(S'outspoken'
p1209
I1
tp1210
a(S'm\xc3\x83\xc2\xa9xico'
p1211
I1
tp1212
a(S'icy'
p1213
I1
tp1214
a(S'shakespeare'
p1215
I1
tp1216
a(S'umc'
p1217
I1
tp1218
a(S'cnn'
p1219
I1
tp1220
a(S'buckwheat'
p1221
I1
tp1222
a(S'holiday'
p1223
I1
tp1224
a(S'bold'
p1225
I1
tp1226
a(S'sadie'
p1227
I1
tp1228
a(S'g-bumps'
p1229
I1
tp1230
a(S'discount'
p1231
I1
tp1232
a(S'cheadle'
p1233
I1
tp1234
a(S'bolt'
p1235
I1
tp1236
a(S'bizmarkie'
p1237
I1
tp1238
a(S'flaws'
p1239
I1
tp1240
a(S'cory'
p1241
I1
tp1242
a(S'yoko'
p1243
I1
tp1244
a(S'brougham'
p1245
I1
tp1246
a(S'plug'
p1247
I1
tp1248
a(S'porscha'
p1249
I1
tp1250
a(S'vinia'
p1251
I1
tp1252
a(S'dollars'
p1253
I1
tp1254
a(S'friends..'
p1255
I1
tp1256
a(S'adex'
p1257
I1
tp1258
a(S'beta'
p1259
I1
tp1260
a(S'afternoon'
p1261
I1
tp1262
a(S'chrysler'
p1263
I1
tp1264
a(S'vonage'
p1265
I1
tp1266
a(S'muhsinah'
p1267
I1
tp1268
a(S'curry'
p1269
I1
tp1270
a(S'nixon'
p1271
I1
tp1272
a(S'tammy'
p1273
I1
tp1274
a(S'cubano'
p1275
I1
tp1276
a(S'guiness'
p1277
I1
tp1278
a(S'whats'
p1279
I1
tp1280
a(S'civic'
p1281
I1
tp1282
a(S'marshall'
p1283
I1
tp1284
a(S'sergio'
p1285
I1
tp1286
a(S'dawson'
p1287
I1
tp1288
a(S'lois'
p1289
I1
tp1290
a(S'erry'
p1291
I1
tp1292
a(S'taffy'
p1293
I1
tp1294
a(S'marshals'
p1295
I1
tp1296
a(S'achilles'
p1297
I1
tp1298
a(S'amsterdam'
p1299
I1
tp1300
a(S'abel'
p1301
I1
tp1302
a(S'mo\xc3\xa2\xc2\x80\xc2\x99'
p1303
I1
tp1304
a(S's.o.bs'
p1305
I1
tp1306
a(S'spongebob'
p1307
I1
tp1308
a(S'malcom'
p1309
I1
tp1310
a(S'g.l.c'
p1311
I1
tp1312
a(S'ayers'
p1313
I1
tp1314
a(S'virgin'
p1315
I1
tp1316
a(S'spring'
p1317
I1
tp1318
a(S'jane'
p1319
I1
tp1320
a(S'wat'
p1321
I1
tp1322
a(S'company'
p1323
I1
tp1324
a(S'shhh'
p1325
I1
tp1326
a(S'yolo'
p1327
I1
tp1328
a(S'\xc3\xa2\xc2\x80\xc2\x9cfuck'
p1329
I1
tp1330
a(S'lovestar'
p1331
I1
tp1332
a(S'fudrucker'
p1333
I1
tp1334
a(S'starrah'
p1335
I1
tp1336
a(S'fore'
p1337
I1
tp1338
a(S'maxim'
p1339
I1
tp1340
a(S'wireless'
p1341
I1
tp1342
a(S'feminine'
p1343
I1
tp1344
a(S'bach'
p1345
I1
tp1346
a(S'solar'
p1347
I1
tp1348
a(S'granger'
p1349
I1
tp1350
a(S'beech'
p1351
I1
tp1352
a(S'chimped'
p1353
I1
tp1354
a(S'popcaan'
p1355
I1
tp1356
a(S'annotate'
p1357
I1
tp1358
a(S'fort'
p1359
I1
tp1360
a(S'viva'
p1361
I1
tp1362
a(S'aja'
p1363
I1
tp1364
a(S'hemi'
p1365
I1
tp1366
a(S'spun'
p1367
I1
tp1368
a(S'couture'
p1369
I1
tp1370
a(S'peso'
p1371
I1
tp1372
a(S'r.i.p'
p1373
I1
tp1374
a(S'gentlemen'
p1375
I1
tp1376
a(S'dues'
p1377
I1
tp1378
a(S"'bach"
p1379
I1
tp1380
a(S'hotter'
p1381
I1
tp1382
a(S'moore'
p1383
I1
tp1384
a(S'mcclerken'
p1385
I1
tp1386
a(S'kansas'
p1387
I1
tp1388
a(S'gemini'
p1389
I1
tp1390
a(S'trix'
p1391
I1
tp1392
a(S'perez'
p1393
I1
tp1394
a(S'ericsson'
p1395
I1
tp1396
a(S'marys'
p1397
I1
tp1398
a(S'tip'
p1399
I1
tp1400
a(S'elway'
p1401
I1
tp1402
a(S'b-blocka'
p1403
I1
tp1404
a(S'\xc3\xa2\xc2\x80\xc2\x98nough'
p1405
I1
tp1406
a(S'republic'
p1407
I1
tp1408
a(S'vicodin'
p1409
I1
tp1410
a(S'test'
p1411
I1
tp1412
a(S'holly'
p1413
I1
tp1414
a(S'railin'
p1415
I1
tp1416
a(S'trifecta'
p1417
I1
tp1418
a(S'tia'
p1419
I1
tp1420
a(S'rolo'
p1421
I1
tp1422
a(S'soho'
p1423
I1
tp1424
a(S'rubberband'
p1425
I1
tp1426
a(S'jumpin'
p1427
I1
tp1428
a(S'hollywood.\xc3\xa2\xc2\x80\xc2\x9d'
p1429
I1
tp1430
a(S'bee-boy'
p1431
I1
tp1432
a(S'hawks'
p1433
I1
tp1434
a(S'cover+'
p1435
I1
tp1436
a(S'fedele'
p1437
I1
tp1438
a(S'aware'
p1439
I1
tp1440
a(S'weekend'
p1441
I1
tp1442
a(S'skinny'
p1443
I1
tp1444
a(S'abraham'
p1445
I1
tp1446
a(S'spades'
p1447
I1
tp1448
a(S'apology'
p1449
I1
tp1450
a(S'glass'
p1451
I1
tp1452
a(S'flag'
p1453
I1
tp1454
a(S'timb'
p1455
I1
tp1456
a(S'loyal'
p1457
I1
tp1458
a(S'he\xc3\xa2\xc2\x80\xc2\x99ll'
p1459
I1
tp1460
a(S'paige'
p1461
I1
tp1462
a(S'stacks'
p1463
I1
tp1464
a(S'i\xc3\x83\xc2\xa2\xc3\x82\xc2\x80\xc3\x82\xc2\x99d'
p1465
I1
tp1466
a(S'switched'
p1467
I1
tp1468
a(S'skip'
p1469
I1
tp1470
a(S'rob'
p1471
I1
tp1472
a(S'global'
p1473
I1
tp1474
a(S'focus'
p1475
I1
tp1476
a(S'marshawn'
p1477
I1
tp1478
a(S'cougars'
p1479
I1
tp1480
a(S'manager'
p1481
I1
tp1482
a(S'marion'
p1483
I1
tp1484
a(S'battle'
p1485
I1
tp1486
a(S'hennesy'
p1487
I1
tp1488
a(S'malibooya'
p1489
I1
tp1490
a(S'vet'
p1491
I1
tp1492
a(S'beckham'
p1493
I1
tp1494
a(S'o-n'
p1495
I1
tp1496
a(S'pintos'
p1497
I1
tp1498
a(S'hurtin'
p1499
I1
tp1500
a(S'iraqi'
p1501
I1
tp1502
a(S'charge'
p1503
I1
tp1504
a(S'kilimanjaro'
p1505
I1
tp1506
a(S'frito-lay'
p1507
I1
tp1508
a(S'coop'
p1509
I1
tp1510
a(S'hitchcock'
p1511
I1
tp1512
a(S'persona'
p1513
I1
tp1514
a(S'rownd'
p1515
I1
tp1516
a(S'blast'
p1517
I1
tp1518
a(S'exact'
p1519
I1
tp1520
a(S'avirex'
p1521
I1
tp1522
a(S'hour'
p1523
I1
tp1524
a(S'ooahhhoahhhhh'
p1525
I1
tp1526
a(S'die'
p1527
I1
tp1528
a(S'debatin'
p1529
I1
tp1530
a(S'hawaii'
p1531
I1
tp1532
a(S'minnie'
p1533
I1
tp1534
a(S'temple'
p1535
I1
tp1536
a(S'neiman'
p1537
I1
tp1538
a(S'fantleroy'
p1539
I1
tp1540
a(S'excellence'
p1541
I1
tp1542
a(S'team'
p1543
I1
tp1544
a(S'quick'
p1545
I1
tp1546
a(S'dip'
p1547
I1
tp1548
a(S'bergundy'
p1549
I1
tp1550
a(S'dis'
p1551
I1
tp1552
a(S'idabi'
p1553
I1
tp1554
a(S'puff\xc3\xa2\xc2\x80\xc2\x99s'
p1555
I1
tp1556
a(S'coleco'
p1557
I1
tp1558
a(S'booster'
p1559
I1
tp1560
a(S'afghanistan'
p1561
I1
tp1562
a(S'lavigne'
p1563
I1
tp1564
a(S'jodeci'
p1565
I1
tp1566
a(S'jeopardy'
p1567
I1
tp1568
a(S'deja-brew'
p1569
I1
tp1570
a(S'hustler'
p1571
I1
tp1572
a(S'channel'
p1573
I1
tp1574
a(S'oaks'
p1575
I1
tp1576
a(S'mp'
p1577
I1
tp1578
a(S'hummer'
p1579
I1
tp1580
a(S'knowin\xc3\xa2\xc2\x80\xc2\x99'
p1581
I1
tp1582
a(S'britney'
p1583
I1
tp1584
a(S'skateboard'
p1585
I1
tp1586
a(S'travolta'
p1587
I1
tp1588
a(S'bowflex'
p1589
I1
tp1590
a(S'galileo'
p1591
I1
tp1592
a(S'teacher'
p1593
I1
tp1594
a(S'stuntin'
p1595
I1
tp1596
a(S'terrence'
p1597
I1
tp1598
a(S'hbo'
p1599
I1
tp1600
a(S'kwe-li'
p1601
I1
tp1602
a(S'stormy'
p1603
I1
tp1604
a(S'hbk'
p1605
I1
tp1606
a(S'maguire'
p1607
I1
tp1608
a(S'g-code'
p1609
I1
tp1610
a(S'lakers'
p1611
I1
tp1612
a(S'every-bod'
p1613
I1
tp1614
a(S'bangz'
p1615
I1
tp1616
a(S'homecoming'
p1617
I1
tp1618
a(S'rambo'
p1619
I1
tp1620
a(S'mccormick'
p1621
I1
tp1622
a(S'wessun'
p1623
I1
tp1624
a(S'krillin'
p1625
I1
tp1626
a(S'shark'
p1627
I1
tp1628
a(S'suggestin'
p1629
I1
tp1630
a(S'bloody'
p1631
I1
tp1632
a(S'patriots'
p1633
I1
tp1634
a(S'isley'
p1635
I1
tp1636
a(S'touchdown'
p1637
I1
tp1638
a(S'crime'
p1639
I1
tp1640
a(S'emmys'
p1641
I1
tp1642
a(S'everybody'
p1643
I1
tp1644
a(S'raider'
p1645
I1
tp1646
a(S'saki'
p1647
I1
tp1648
a(S'easter\xc3\xa2\xc2\x80\xc2\x99s'
p1649
I1
tp1650
a(S'angela'
p1651
I1
tp1652
a(S'aspirin'
p1653
I1
tp1654
a(S'shanice'
p1655
I1
tp1656
a(S'chan-man'
p1657
I1
tp1658
a(S'abrams'
p1659
I1
tp1660
a(S'penn'
p1661
I1
tp1662
a(S'sprite'
p1663
I1
tp1664
a(S'kimora'
p1665
I1
tp1666
a(S'gotem'
p1667
I1
tp1668
a(S'claus'
p1669
I1
tp1670
a(S'rolleys'
p1671
I1
tp1672
a(S'chocolate'
p1673
I1
tp1674
a(S'listenin'
p1675
I1
tp1676
a(S"'ye"
p1677
I1
tp1678
a(S'drown'
p1679
I1
tp1680
a(S'goooo'
p1681
I1
tp1682
a(S'youmedia'
p1683
I1
tp1684
a(S'pinkhouse'
p1685
I1
tp1686
a(S'judgin'
p1687
I1
tp1688
a(S'ka-clow'
p1689
I1
tp1690
a(S'corretta'
p1691
I1
tp1692
a(S"'rari"
p1693
I1
tp1694
a(S'clearsight'
p1695
I1
tp1696
a(S'confucius'
p1697
I1
tp1698
a(S"'common"
p1699
I1
tp1700
a(S'believer'
p1701
I1
tp1702
a(S'hardest'
p1703
I1
tp1704
a(S'sour'
p1705
I1
tp1706
a(S'cal'
p1707
I1
tp1708
a(S'making'
p1709
I1
tp1710
a(S'hiroshima'
p1711
I1
tp1712
a(S'kyo'
p1713
I1
tp1714
a(S'kenneth'
p1715
I1
tp1716
a(S'chip'
p1717
I1
tp1718
a(S'agent'
p1719
I1
tp1720
a(S'ohhhohh'
p1721
I1
tp1722
a(S'cameoed'
p1723
I1
tp1724
a(S'stroke'
p1725
I1
tp1726
a(S'chin'
p1727
I1
tp1728
a(S'handle'
p1729
I1
tp1730
a(S'mojica'
p1731
I1
tp1732
a(S'polaroids'
p1733
I1
tp1734
a(S'awwww'
p1735
I1
tp1736
a(S'woodpecker'
p1737
I1
tp1738
a(S'pino'
p1739
I1
tp1740
a(S'lamborghinis'
p1741
I1
tp1742
a(S'nyu'
p1743
I1
tp1744
a(S',1'
p1745
I1
tp1746
a(S'beneficent'
p1747
I1
tp1748
a(S't-shirts'
p1749
I1
tp1750
a(S'celine'
p1751
I1
tp1752
a(S'samuel'
p1753
I1
tp1754
a(S'paramount'
p1755
I1
tp1756
a(S'explorer'
p1757
I1
tp1758
a(S'hog'
p1759
I1
tp1760
a(S'cuhz'
p1761
I1
tp1762
a(S'eighty'
p1763
I1
tp1764
a(S'aow'
p1765
I1
tp1766
a(S'crashed'
p1767
I1
tp1768
a(S'date'
p1769
I1
tp1770
a(S'dove'
p1771
I1
tp1772
a(S'grow'
p1773
I1
tp1774
a(S'supersonic'
p1775
I1
tp1776
a(S'gaultier'
p1777
I1
tp1778
a(S'higgs'
p1779
I1
tp1780
a(S'cubanas'
p1781
I1
tp1782
a(S'gambit'
p1783
I1
tp1784
a(S'hoeeee'
p1785
I1
tp1786
a(S'benny'
p1787
I1
tp1788
a(S'sk'
p1789
I1
tp1790
a(S'inform'
p1791
I1
tp1792
a(S'jail'
p1793
I1
tp1794
a(S'inderpendence'
p1795
I1
tp1796
a(S'cannon'
p1797
I1
tp1798
a(S'african'
p1799
I1
tp1800
a(S'giv-en-chy'
p1801
I1
tp1802
a(S"l'eau"
p1803
I1
tp1804
a(S'shiela'
p1805
I1
tp1806
a(S'cute'
p1807
I1
tp1808
a(S'stilt'
p1809
I1
tp1810
a(S'shield'
p1811
I1
tp1812
a(S'food'
p1813
I1
tp1814
a(S'bassum'
p1815
I1
tp1816
a(S'o-dog'
p1817
I1
tp1818
a(S'fienin'
p1819
I1
tp1820
a(S'irene'
p1821
I1
tp1822
a(S'birds'
p1823
I1
tp1824
a(S'jock'
p1825
I1
tp1826
a(S'g-shocking'
p1827
I1
tp1828
a(S'french-ass'
p1829
I1
tp1830
a(S'apes'
p1831
I1
tp1832
a(S'wallace'
p1833
I1
tp1834
a(S'tbd'
p1835
I1
tp1836
a(S'lyin'
p1837
I1
tp1838
a(S'window'
p1839
I1
tp1840
a(S'naww'
p1841
I1
tp1842
a(S'aoww-owwww'
p1843
I1
tp1844
a(S'avis'
p1845
I1
tp1846
a(S'farmer'
p1847
I1
tp1848
a(S'range/range'
p1849
I1
tp1850
a(S'sooner'
p1851
I1
tp1852
a(S'tucker'
p1853
I1
tp1854
a(S'chuckie'
p1855
I1
tp1856
a(S'hosena'
p1857
I1
tp1858
a(S'caine'
p1859
I1
tp1860
a(S'moma'
p1861
I1
tp1862
a(S'twilight'
p1863
I1
tp1864
a(S'bullshit'
p1865
I1
tp1866
a(S'halo'
p1867
I1
tp1868
a(S'wont'
p1869
I1
tp1870
a(S'mcnich'
p1871
I1
tp1872
a(S'jadakiss'
p1873
I1
tp1874
a(S'times'
p1875
I1
tp1876
a(S't-rex'
p1877
I1
tp1878
a(S'careless'
p1879
I1
tp1880
a(S'deandre'
p1881
I1
tp1882
a(S'baltimore-'
p1883
I1
tp1884
a(S'yeaa'
p1885
I1
tp1886
a(S'lowkey'
p1887
I1
tp1888
a(S'latin'
p1889
I1
tp1890
a(S'benita'
p1891
I1
tp1892
a(S'kang'
p1893
I1
tp1894
a(S'boosie'
p1895
I1
tp1896
a(S'ex'
p1897
I1
tp1898
a(S'ez'
p1899
I1
tp1900
a(S'amaretto'
p1901
I1
tp1902
a(S'canada'
p1903
I1
tp1904
a(S'doo-doo-doo'
p1905
I1
tp1906
a(S'zeppi'
p1907
I1
tp1908
a(S'profit'
p1909
I1
tp1910
a(S'dwayne'
p1911
I1
tp1912
a(S'oklahoma'
p1913
I1
tp1914
a(S'bearhead'
p1915
I1
tp1916
a(S'stefani'
p1917
I1
tp1918
a(S'fargo'
p1919
I1
tp1920
a(S'e.'
p1921
I1
tp1922
a(S'hairdresser'
p1923
I1
tp1924
a(S'sideways'
p1925
I1
tp1926
a(S'galapogos'
p1927
I1
tp1928
a(S'rebel'
p1929
I1
tp1930
a(S'marina'
p1931
I1
tp1932
a(S'cara'
p1933
I1
tp1934
a(S'ora'
p1935
I1
tp1936
a(S'waxx'
p1937
I1
tp1938
a(S'watts'
p1939
I1
tp1940
a(S'jakes'
p1941
I1
tp1942
a(S'wintour'
p1943
I1
tp1944
a(S'hamer'
p1945
I1
tp1946
a(S'lindsey'
p1947
I1
tp1948
a(S'a.i.d.s'
p1949
I1
tp1950
a(S"'why"
p1951
I1
tp1952
a(S'dinero'
p1953
I1
tp1954
a(S'brokeback'
p1955
I1
tp1956
a(S'nia'
p1957
I1
tp1958
a(S'baghdad'
p1959
I1
tp1960
a(S'xo'
p1961
I1
tp1962
a(S'americana'
p1963
I1
tp1964
a(S'pillsbury'
p1965
I1
tp1966
a(S'vanilla'
p1967
I1
tp1968
a(S'potter'
p1969
I1
tp1970
a(S'kris'
p1971
I1
tp1972
a(S'costner'
p1973
I1
tp1974
a(S'dreamin'
p1975
I1
tp1976
a(S'crip'
p1977
I1
tp1978
a(S'hessleton'
p1979
I1
tp1980
a(S'brooklyn'
p1981
I1
tp1982
a(S'lanka'
p1983
I1
tp1984
a(S'slept'
p1985
I1
tp1986
a(S'dawns'
p1987
I1
tp1988
a(S'plastic'
p1989
I1
tp1990
a(S'carson'
p1991
I1
tp1992
a(S'backwoods'
p1993
I1
tp1994
a(S'escort'
p1995
I1
tp1996
a(S'nightlife'
p1997
I1
tp1998
a(S'thas'
p1999
I1
tp2000
a(S'brainy'
p2001
I1
tp2002
a(S'shawn'
p2003
I1
tp2004
a(S'public'
p2005
I1
tp2006
a(S'crews'
p2007
I1
tp2008
a(S'junkyard'
p2009
I1
tp2010
a(S'inglish'
p2011
I1
tp2012
a(S'posin'
p2013
I1
tp2014
a(S'touchindown'
p2015
I1
tp2016
a(S'edition'
p2017
I1
tp2018
a(S'grammer'
p2019
I1
tp2020
a(S'thuggin'
p2021
I1
tp2022
a(S'audy'
p2023
I1
tp2024
a(S'zuckerbergs'
p2025
I1
tp2026
a(S'sera'
p2027
I1
tp2028
a(S'college'
p2029
I1
tp2030
a(S'fruity'
p2031
I1
tp2032
a(S'prospect'
p2033
I1
tp2034
a(S'sag'
p2035
I1
tp2036
a(S'marijuana'
p2037
I1
tp2038
a(S'thankgiving'
p2039
I1
tp2040
a(S'healthcare'
p2041
I1
tp2042
a(S'avenlon'
p2043
I1
tp2044
a(S'loko'
p2045
I1
tp2046
a(S'anger'
p2047
I1
tp2048
a(S'superman'
p2049
I1
tp2050
a(S'prenup'
p2051
I1
tp2052
a(S'coliseum'
p2053
I1
tp2054
a(S'rook'
p2055
I1
tp2056
a(S'zoo'
p2057
I1
tp2058
a(S'squad'
p2059
I1
tp2060
a(S'gangstarr'
p2061
I1
tp2062
a(S'take'
p2063
I1
tp2064
a(S'bumpin'
p2065
I1
tp2066
a(S'grip'
p2067
I1
tp2068
a(S'bailey'
p2069
I1
tp2070
a(S'bang-kok'
p2071
I1
tp2072
a(S'can\xc3\xa2\xc2\x80\xc2\x99t'
p2073
I1
tp2074
a(S'mayer'
p2075
I1
tp2076
a(S'lick'
p2077
I1
tp2078
a(S'heineken'
p2079
I1
tp2080
a(S'jungle'
p2081
I1
tp2082
a(S'teflon'
p2083
I1
tp2084
a(S'murphy'
p2085
I1
tp2086
a(S"c'mere"
p2087
I1
tp2088
a(S'spangled'
p2089
I1
tp2090
a(S'opposite'
p2091
I1
tp2092
a(S'cheesecake'
p2093
I1
tp2094
a(S'price'
p2095
I1
tp2096
a(S'pharaoh'
p2097
I1
tp2098
a(S'baduuuu'
p2099
I1
tp2100
a(S"lexuses/'lexeses"
p2101
I1
tp2102
a(S'drummond'
p2103
I1
tp2104
a(S'thou'
p2105
I1
tp2106
a(S'synonym'
p2107
I1
tp2108
a(S'butterworth'
p2109
I1
tp2110
a(S'jiminy'
p2111
I1
tp2112
a(S'gyro'
p2113
I1
tp2114
a(S'minnelli'
p2115
I1
tp2116
a(S'atvs'
p2117
I1
tp2118
a(S'kansas..'
p2119
I1
tp2120
a(S'greed'
p2121
I1
tp2122
a(S'harvey'
p2123
I1
tp2124
a(S'damnn'
p2125
I1
tp2126
a(S'tron'
p2127
I1
tp2128
a(S'axl'
p2129
I1
tp2130
a(S'pitino'
p2131
I1
tp2132
a(S'shop'
p2133
I1
tp2134
a(S'playoffs'
p2135
I1
tp2136
a(S'u-i-c'
p2137
I1
tp2138
a(S'accessorize'
p2139
I1
tp2140
a(S'tko'
p2141
I1
tp2142
a(S'delta'
p2143
I1
tp2144
a(S'cheap'
p2145
I1
tp2146
a(S'mobbin'
p2147
I1
tp2148
a(S'fifty'
p2149
I1
tp2150
a(S'kaopectate'
p2151
I1
tp2152
a(S'shoe'
p2153
I1
tp2154
a(S'kree'
p2155
I1
tp2156
a(S'lay'
p2157
I1
tp2158
a(S'crane'
p2159
I1
tp2160
a(S'aint'
p2161
I1
tp2162
a(S'gulf'
p2163
I1
tp2164
a(S'genius'
p2165
I1
tp2166
a(S'enough'
p2167
I1
tp2168
a(S'wood'
p2169
I1
tp2170
a(S'actin'
p2171
I1
tp2172
a(S'hockey'
p2173
I1
tp2174
a(S'plums'
p2175
I1
tp2176
a(S'robb'
p2177
I1
tp2178
a(S'down-da-down'
p2179
I1
tp2180
a(S'jody'
p2181
I1
tp2182
a(S'taye'
p2183
I1
tp2184
a(S'gil-scott'
p2185
I1
tp2186
a(S'givin\xc3\xa2\xc2\x80\xc2\x99em'
p2187
I1
tp2188
a(S"le'maire"
p2189
I1
tp2190
a(S'chantay'
p2191
I1
tp2192
a(S'frontin'
p2193
I1
tp2194
a(S'fubu'
p2195
I1
tp2196
a(S'hooper'
p2197
I1
tp2198
a(S'geo'
p2199
I1
tp2200
a(S'nola'
p2201
I1
tp2202
a(S'celebrate'
p2203
I1
tp2204
a(S'erick'
p2205
I1
tp2206
a(S'bel-air'
p2207
I1
tp2208
a(S'renge'
p2209
I1
tp2210
a(S'artist'
p2211
I1
tp2212
a(S'pascal'
p2213
I1
tp2214
a(S'godzilla'
p2215
I1
tp2216
a(S'naked'
p2217
I1
tp2218
a(S'khomein'
p2219
I1
tp2220
a(S'mattie'
p2221
I1
tp2222
a(S'miles'
p2223
I1
tp2224
a(S'trapman'
p2225
I1
tp2226
a(S'jurner'
p2227
I1
tp2228
a(S'buy'
p2229
I1
tp2230
a(S"y'all"
p2231
I1
tp2232
a(S'learn'
p2233
I1
tp2234
a(S'beholding'
p2235
I1
tp2236
a(S'kissin\xc3\xa2\xc2\x80\xc2\x99'
p2237
I1
tp2238
a(S'screwed'
p2239
I1
tp2240
a(S'kfc'
p2241
I1
tp2242
a(S'stanley'
p2243
I1
tp2244
a(S'sport'
p2245
I1
tp2246
a(S'afghan'
p2247
I1
tp2248
a(S'colgate'
p2249
I1
tp2250
a(S'puma'
p2251
I1
tp2252
a(S'jeter'
p2253
I1
tp2254
a(S'brantleys'
p2255
I1
tp2256
a(S'pump'
p2257
I1
tp2258
a(S'bootsy'
p2259
I1
tp2260
a(S'ok.'
p2261
I1
tp2262
a(S'fight'
p2263
I1
tp2264
a(S'august'
p2265
I1
tp2266
a(S'lettin'
p2267
I1
tp2268
a(S'phli'
p2269
I1
tp2270
a(S'timmy'
p2271
I1
tp2272
a(S'comm'
p2273
I1
tp2274
a(S'spark'
p2275
I1
tp2276
a(S'a.k'
p2277
I1
tp2278
a(S'lollapalooza'
p2279
I1
tp2280
a(S'knowhatimsayin'
p2281
I1
tp2282
a(S'warhol'
p2283
I1
tp2284
a(S'yasiin'
p2285
I1
tp2286
a(S'd\xc3\xa2\xc2\x80\xc2\x99banj'
p2287
I1
tp2288
a(S'leos'
p2289
I1
tp2290
a(S'sweat'
p2291
I1
tp2292
a(S'called'
p2293
I1
tp2294
a(S'elijah'
p2295
I1
tp2296
a(S'whopee'
p2297
I1
tp2298
a(S'mane'
p2299
I1
tp2300
a(S'kahlo'
p2301
I1
tp2302
a(S'jeremih'
p2303
I1
tp2304
a(S'countach'
p2305
I1
tp2306
a(S'pcp'
p2307
I1
tp2308
a(S'mano'
p2309
I1
tp2310
a(S'dissin'
p2311
I1
tp2312
a(S'wanye'
p2313
I1
tp2314
a(S'perion'
p2315
I1
tp2316
a(S'color'
p2317
I1
tp2318
a(S'pow'
p2319
I1
tp2320
a(S"d'usse"
p2321
I1
tp2322
a(S'period'
p2323
I1
tp2324
a(S'messin'
p2325
I1
tp2326
a(S'bizarro'
p2327
I1
tp2328
a(S'refaeli'
p2329
I1
tp2330
a(S'handheld'
p2331
I1
tp2332
a(S'kev'
p2333
I1
tp2334
a(S'commes'
p2335
I1
tp2336
a(S"patron'ed"
p2337
I1
tp2338
a(S'nicole'
p2339
I1
tp2340
a(S'most'
p2341
I1
tp2342
a(S'jetson'
p2343
I1
tp2344
a(S'rilkes'
p2345
I1
tp2346
a(S'almighty'
p2347
I1
tp2348
a(S'marv'
p2349
I1
tp2350
a(S'ra-i'
p2351
I1
tp2352
a(S'mars'
p2353
I1
tp2354
a(S'handicam'
p2355
I1
tp2356
a(S'billups'
p2357
I1
tp2358
a(S'lanes'
p2359
I1
tp2360
a(S'robbed'
p2361
I1
tp2362
a(S'georgia'
p2363
I1
tp2364
a(S'isaac'
p2365
I1
tp2366
a(S'dal\xc3\x83\xc2\xad'
p2367
I1
tp2368
a(S'hatin'
p2369
I1
tp2370
a(S'bmx'
p2371
I1
tp2372
a(S'ruby'
p2373
I1
tp2374
a(S'hugo'
p2375
I1
tp2376
a(S'leinart'
p2377
I1
tp2378
a(S'hughes'
p2379
I1
tp2380
a(S'spiderman'
p2381
I1
tp2382
a(S'naacp'
p2383
I1
tp2384
a(S'mount'
p2385
I1
tp2386
a(S'muthafuck'
p2387
I1
tp2388
a(S'ratchet'
p2389
I1
tp2390
a(S'ignition'
p2391
I1
tp2392
a(S'pushin'
p2393
I1
tp2394
a(S'ive'
p2395
I1
tp2396
a(S'shepard'
p2397
I1
tp2398
a(S'soil'
p2399
I1
tp2400
a(S'blam'
p2401
I1
tp2402
a(S'curtis'
p2403
I1
tp2404
a(S'blac'
p2405
I1
tp2406
a(S'bowlin'
p2407
I1
tp2408
a(S'fame'
p2409
I1
tp2410
a(S'hustlers'
p2411
I1
tp2412
a(S'harsh'
p2413
I1
tp2414
a(S'sellin'
p2415
I1
tp2416
a(S'epmd'
p2417
I1
tp2418
a(S'glorifyin'
p2419
I1
tp2420
a(S'pad'
p2421
I1
tp2422
a(S'abu-dhabi'
p2423
I1
tp2424
a(S'aura'
p2425
I1
tp2426
a(S'noble'
p2427
I1
tp2428
a(S'finish'
p2429
I1
tp2430
a(S'phifer'
p2431
I1
tp2432
a(S'tipsy'
p2433
I1
tp2434
a(S'doo-doo-doo-doo-doo-doo'
p2435
I1
tp2436
a(S'director'
p2437
I1
tp2438
a(S'eatin\xc3\xa2\xc2\x80\xc2\x99'
p2439
I1
tp2440
a(S'blocka-blocka'
p2441
I1
tp2442
a(S'yg'
p2443
I1
tp2444
a(S'statue'
p2445
I1
tp2446
a(S'ferrarro'
p2447
I1
tp2448
a(S'hubba'
p2449
I1
tp2450
a(S'spellman'
p2451
I1
tp2452
a(S'regis'
p2453
I1
tp2454
a(S'revelations'
p2455
I1
tp2456
a(S'tia\xc3\xa2\xc2\x80\xc2\x99s'
p2457
I1
tp2458
a(S'ripken'
p2459
I1
tp2460
a(S'thugging'
p2461
I1
tp2462
a(S'casio'
p2463
I1
tp2464
a(S'lati-fah'
p2465
I1
tp2466
a(S'bowser'
p2467
I1
tp2468
a(S'jersey'
p2469
I1
tp2470
a(S'crypt'
p2471
I1
tp2472
a(S'hummin'
p2473
I1
tp2474
a(S'model'
p2475
I1
tp2476
a(S'bumping'
p2477
I1
tp2478
a(S'cca'
p2479
I1
tp2480
a(S'ultralight'
p2481
I1
tp2482
a(S'gates'
p2483
I1
tp2484
a(S'monet'
p2485
I1
tp2486
a(S'benzo'
p2487
I1
tp2488
a(S'being'
p2489
I1
tp2490
a(S'donatello'
p2491
I1
tp2492
a(S'conveyin'
p2493
I1
tp2494
a(S'lebaron'
p2495
I1
tp2496
a(S'derado'
p2497
I1
tp2498
a(S'trina'
p2499
I1
tp2500
a(S'reality'
p2501
I1
tp2502
a(S'halfway'
p2503
I1
tp2504
a(S'mys'
p2505
I1
tp2506
a(S'starks'
p2507
I1
tp2508
a(S'lett'
p2509
I1
tp2510
a(S'w-2s'
p2511
I1
tp2512
a(S'stardee'
p2513
I1
tp2514
a(S'visine'
p2515
I1
tp2516
a(S'bread'
p2517
I1
tp2518
a(S'tuesday'
p2519
I1
tp2520
a(S'kingdom'
p2521
I1
tp2522
a(S'delorean'
p2523
I1
tp2524
a(S'zion'
p2525
I1
tp2526
a(S'schwarzenegger'
p2527
I1
tp2528
a(S'samurai'
p2529
I1
tp2530
a(S'amc'
p2531
I1
tp2532
a(S'amg'
p2533
I1
tp2534
a(S'pos'
p2535
I1
tp2536
a(S'helen'
p2537
I1
tp2538
a(S'headroom'
p2539
I1
tp2540
a(S'mon'
p2541
I1
tp2542
a(S'so-fly'
p2543
I1
tp2544
a(S'dutty'
p2545
I1
tp2546
a(S'kiara'
p2547
I1
tp2548
a(S'moe'
p2549
I1
tp2550
a(S'valentine'
p2551
I1
tp2552
a(S'christina'
p2553
I1
tp2554
a(S'miracle'
p2555
I1
tp2556
a(S"'ve"
p2557
I1
tp2558
a(S'capricorn'
p2559
I1
tp2560
a(S'nose'
p2561
I1
tp2562
a(S'tower'
p2563
I1
tp2564
a(S'clap'
p2565
I1
tp2566
a(S'afrikan'
p2567
I1
tp2568
a(S'bellamy'
p2569
I1
tp2570
a(S'goldilocks'
p2571
I1
tp2572
a(S'cinnabon'
p2573
I1
tp2574
a(S'suprise'
p2575
I1
tp2576
a(S"cam'ron"
p2577
I1
tp2578
a(S'lucy'
p2579
I1
tp2580
a(S'\xc3\xa2\xc2\x80\xc2\x98ye\xc3\xa2\xc2\x80\xc2\x99s'
p2581
I1
tp2582
a(S'w-h-i-t'
p2583
I1
tp2584
a(S'denny'
p2585
I1
tp2586
a(S'joan'
p2587
I1
tp2588
a(S'akeelah'
p2589
I1
tp2590
a(S'slice'
p2591
I1
tp2592
a(S'ellis'
p2593
I1
tp2594
a(S'patra'
p2595
I1
tp2596
a(S'scottie'
p2597
I1
tp2598
a(S'charismatic'
p2599
I1
tp2600
a(S'squarter'
p2601
I1
tp2602
a(S'buddha'
p2603
I1
tp2604
a(S'flo'
p2605
I1
tp2606
a(S"'till"
p2607
I1
tp2608
a(S'jabos'
p2609
I1
tp2610
a(S'riddick'
p2611
I1
tp2612
a(S'skeet'
p2613
I1
tp2614
a(S'power'
p2615
I1
tp2616
a(S'asap'
p2617
I1
tp2618
a(S'jeronimo'
p2619
I1
tp2620
a(S'uh..'
p2621
I1
tp2622
a(S'notos'
p2623
I1
tp2624
a(S'shmurda'
p2625
I1
tp2626
a(S'tonka'
p2627
I1
tp2628
a(S'akon'
p2629
I1
tp2630
a(S'uneasy'
p2631
I1
tp2632
a(S'jacksons'
p2633
I1
tp2634
a(S'kenobi'
p2635
I1
tp2636
a(S'frenchman'
p2637
I1
tp2638
a(S"'the"
p2639
I1
tp2640
a(S'travelin'
p2641
I1
tp2642
a(S'uh-uh'
p2643
I1
tp2644
a(S'od'
p2645
I1
tp2646
a(S'shrimp'
p2647
I1
tp2648
a(S'stretch'
p2649
I1
tp2650
a(S'hieroglyphics'
p2651
I1
tp2652
a(S'sachs'
p2653
I1
tp2654
a(S'stank'
p2655
I1
tp2656
a(S'road'
p2657
I1
tp2658
a(S'brrrr'
p2659
I1
tp2660
a(S'amber'
p2661
I1
tp2662
a(S'clarice'
p2663
I1
tp2664
a(S'cambridge'
p2665
I1
tp2666
a(S'newtone'
p2667
I1
tp2668
a(S'kimoji'
p2669
I1
tp2670
a(S'dependin'
p2671
I1
tp2672
a(S'marlins'
p2673
I1
tp2674
a(S'penelope'
p2675
I1
tp2676
a(S'pincer'
p2677
I1
tp2678
a(S'castro'
p2679
I1
tp2680
a(S'nowadays'
p2681
I1
tp2682
a(S"i'on"
p2683
I1
tp2684
a(S'area'
p2685
I1
tp2686
a(S'omega'
p2687
I1
tp2688
a(S'inannet'
p2689
I1
tp2690
a(S'there'
p2691
I1
tp2692
a(S'gopro'
p2693
I1
tp2694
a(S'cold-blooded'
p2695
I1
tp2696
a(S'sebi'
p2697
I1
tp2698
a(S'cats'
p2699
I1
tp2700
a(S'lions'
p2701
I1
tp2702
a(S'heyyyyy'
p2703
I1
tp2704
a(S"fo'nem"
p2705
I1
tp2706
a(S'or-gy'
p2707
I1
tp2708
a(S'hen'
p2709
I1
tp2710
a(S'heh'
p2711
I1
tp2712
a(S'actavis'
p2713
I1
tp2714
a(S'boniqua'
p2715
I1
tp2716
a(S'switcher'
p2717
I1
tp2718
a(S'jug'
p2719
I1
tp2720
a(S'holy-molia'
p2721
I1
tp2722
a(S'sacrificin'
p2723
I1
tp2724
a(S'amongst'
p2725
I1
tp2726
a(S'yaya'
p2727
I1
tp2728
a(S'hiccup'
p2729
I1
tp2730
a(S'mick'
p2731
I1
tp2732
a(S'sucka'
p2733
I1
tp2734
a(S'hurricanes'
p2735
I1
tp2736
a(S'cottage'
p2737
I1
tp2738
a(S'macelroy'
p2739
I1
tp2740
a(S'waffle'
p2741
I1
tp2742
a(S'yayo'
p2743
I1
tp2744
a(S'stickin'
p2745
I1
tp2746
a(S'darken'
p2747
I1
tp2748
a(S'g-o'
p2749
I1
tp2750
a(S'bullet'
p2751
I1
tp2752
a(S'rage'
p2753
I1
tp2754
a(S'doobie'
p2755
I1
tp2756
a(S'pacman'
p2757
I1
tp2758
a(S'bucket'
p2759
I1
tp2760
a(S'poison'
p2761
I1
tp2762
a(S'caylor'
p2763
I1
tp2764
a(S'vick'
p2765
I1
tp2766
a(S'russ'
p2767
I1
tp2768
a(S'pulp'
p2769
I1
tp2770
a(S'care'
p2771
I1
tp2772
a(S'aa'
p2773
I1
tp2774
a(S'helly'
p2775
I1
tp2776
a(S'gameboys'
p2777
I1
tp2778
a(S'youtube'
p2779
I1
tp2780
a(S'aj'
p2781
I1
tp2782
a(S'fellow'
p2783
I1
tp2784
a(S'horse'
p2785
I1
tp2786
a(S'bishop'
p2787
I1
tp2788
a(S'stillmatic'
p2789
I1
tp2790
a(S'again'
p2791
I1
tp2792
a(S'unravellin'
p2793
I1
tp2794
a(S'sulaiman'
p2795
I1
tp2796
a(S'collo'
p2797
I1
tp2798
a(S'nancy'
p2799
I1
tp2800
a(S'tight'
p2801
I1
tp2802
a(S'trample'
p2803
I1
tp2804
a(S'summit'
p2805
I1
tp2806
a(S'twerk'
p2807
I1
tp2808
a(S'skibbidy'
p2809
I1
tp2810
a(S'woodgrain'
p2811
I1
tp2812
a(S'narco'
p2813
I1
tp2814
a(S'congress'
p2815
I1
tp2816
a(S'souls'
p2817
I1
tp2818
a(S'katrina'
p2819
I1
tp2820
a(S'cadillacs'
p2821
I1
tp2822
a(S'folarin'
p2823
I1
tp2824
a(S'blazin'
p2825
I1
tp2826
a(S'slang'
p2827
I1
tp2828
a(S'bun-b'
p2829
I1
tp2830
a(S'menace'
p2831
I1
tp2832
a(S'applause'
p2833
I1
tp2834
a(S'natalia'
p2835
I1
tp2836
a(S'tricks'
p2837
I1
tp2838
a(S'deesy'
p2839
I1
tp2840
a(S'nsync'
p2841
I1
tp2842
a(S'afros'
p2843
I1
tp2844
a(S'fraudulent'
p2845
I1
tp2846
a(S'mass'
p2847
I1
tp2848
a(S'nelson'
p2849
I1
tp2850
a(S'hardaway'
p2851
I1
tp2852
a(S'deluxe'
p2853
I1
tp2854
a(S'lemonhead'
p2855
I1
tp2856
a(S'montego'
p2857
I1
tp2858
a(S'nardwuar'
p2859
I1
tp2860
a(S'all'
p2861
I1
tp2862
a(S'diss'
p2863
I1
tp2864
a(S'cough'
p2865
I1
tp2866
a(S'depends'
p2867
I1
tp2868
a(S'timbaland'
p2869
I1
tp2870
a(S'norah'
p2871
I1
tp2872
a(S'vill'
p2873
I1
tp2874
a(S'welfare'
p2875
I1
tp2876
a(S'alv'
p2877
I1
tp2878
a(S'jason'
p2879
I1
tp2880
a(S'meditation'
p2881
I1
tp2882
a(S'bookers'
p2883
I1
tp2884
a(S'hmmm'
p2885
I1
tp2886
a(S'technomarine'
p2887
I1
tp2888
a(S'asada'
p2889
I1
tp2890
a(S'griffin'
p2891
I1
tp2892
a(S'fits'
p2893
I1
tp2894
a(S'balenciaga'
p2895
I1
tp2896
a(S'tais'
p2897
I1
tp2898
a(S'claire'
p2899
I1
tp2900
a(S'program'
p2901
I1
tp2902
a(S'depictin'
p2903
I1
tp2904
a(S'hooks'
p2905
I1
tp2906
a(S"i'ma\xc3\xa2\xc2\x80\xc2\xa6"
p2907
I1
tp2908
a(S'peavey'
p2909
I1
tp2910
a(S'tc'
p2911
I1
tp2912
a(S'woman'
p2913
I1
tp2914
a(S'pink-ass'
p2915
I1
tp2916
a(S'bumstead'
p2917
I1
tp2918
a(S'egyptian'
p2919
I1
tp2920
a(S'far'
p2921
I1
tp2922
a(S'dwyane'
p2923
I1
tp2924
a(S'horror'
p2925
I1
tp2926
a(S'smh'
p2927
I1
tp2928
a(S'simpsons'
p2929
I1
tp2930
a(S'sigma'
p2931
I1
tp2932
a(S'fall'
p2933
I1
tp2934
a(S'californicatin'
p2935
I1
tp2936
a(S'elena'
p2937
I1
tp2938
a(S'ramen'
p2939
I1
tp2940
a(S'\xc3\xa2\xc2\x80\xc2\x98a'
p2941
I1
tp2942
a(S'laura'
p2943
I1
tp2944
a(S'alma'
p2945
I1
tp2946
a(S"'member"
p2947
I1
tp2948
a(S'soulo'
p2949
I1
tp2950
a(S'celebrity'
p2951
I1
tp2952
a(S't2'
p2953
I1
tp2954
a(S't3'
p2955
I1
tp2956
a(S'sang'
p2957
I1
tp2958
a(S'benford'
p2959
I1
tp2960
a(S'largo'
p2961
I1
tp2962
a(S'magdalene'
p2963
I1
tp2964
a(S'louvre'
p2965
I1
tp2966
a(S'bonin'
p2967
I1
tp2968
a(S'tec'
p2969
I1
tp2970
a(S'tee'
p2971
I1
tp2972
a(S'burger'
p2973
I1
tp2974
a(S'bussin\xc3\xa2\xc2\x80\xc2\x99'
p2975
I1
tp2976
a(S'doo-doo-d-doo'
p2977
I1
tp2978
a(S"'gram"
p2979
I1
tp2980
a(S'alexus'
p2981
I1
tp2982
a(S'jarritos'
p2983
I1
tp2984
a(S'callin'
p2985
I1
tp2986
a(S'aba'
p2987
I1
tp2988
a(S'nann'
p2989
I1
tp2990
a(S'nana'
p2991
I1
tp2992
a(S'section'
p2993
I1
tp2994
a(S'rascal'
p2995
I1
tp2996
a(S'overload'
p2997
I1
tp2998
a(S'suh'
p2999
I1
tp3000
a(S'suv'
p3001
I1
tp3002
a(S'jedi'
p3003
I1
tp3004
a(S'crispus'
p3005
I1
tp3006
a(S'cheetahs'
p3007
I1
tp3008
a(S'hash'
p3009
I1
tp3010
a(S'relationships'
p3011
I1
tp3012
a(S'venice'
p3013
I1
tp3014
a(S'forgive'
p3015
I1
tp3016
a(S'witcha'
p3017
I1
tp3018
a(S'millie'
p3019
I1
tp3020
a(S'palin'
p3021
I1
tp3022
a(S'baller'
p3023
I1
tp3024
a(S'iraq'
p3025
I1
tp3026
a(S'popeye'
p3027
I1
tp3028
a(S'darius'
p3029
I1
tp3030
a(S'avril'
p3031
I1
tp3032
a(S'd.c'
p3033
I1
tp3034
a(S'cavalier'
p3035
I1
tp3036
a(S'jackie'
p3037
I1
tp3038
a(S'contraire'
p3039
I1
tp3040
a(S'mommy'
p3041
I1
tp3042
a(S'mandela'
p3043
I1
tp3044
a(S'ivan'
p3045
I1
tp3046
a(S'grindin'
p3047
I1
tp3048
a(S'aria'
p3049
I1
tp3050
a(S'minetta'
p3051
I1
tp3052
a(S'meurice'
p3053
I1
tp3054
a(S'toys'
p3055
I1
tp3056
a(S'fever-in'
p3057
I1
tp3058
a(S'g-mails'
p3059
I1
tp3060
a(S'minotaur'
p3061
I1
tp3062
a(S'mighty'
p3063
I1
tp3064
a(S'proceed'
p3065
I1
tp3066
a(S'noticin'
p3067
I1
tp3068
a(S'brrr'
p3069
I1
tp3070
a(S'dozier'
p3071
I1
tp3072
a(S'greeklike'
p3073
I1
tp3074
a(S'mylik'
p3075
I1
tp3076
a(S'sls'
p3077
I1
tp3078
a(S'bonilla'
p3079
I1
tp3080
a(S'dyslexics'
p3081
I1
tp3082
a(S'denero'
p3083
I1
tp3084
a(S'gump'
p3085
I1
tp3086
a(S'chucky'
p3087
I1
tp3088
a(S'instrumental'
p3089
I1
tp3090
a(S'benihani'
p3091
I1
tp3092
a(S'corleone'
p3093
I1
tp3094
a(S'known'
p3095
I1
tp3096
a(S'nbc'
p3097
I1
tp3098
a(S'doom'
p3099
I1
tp3100
a(S'brabus'
p3101
I1
tp3102
a(S'long-stroke'
p3103
I1
tp3104
a(S'wasn\xc3\xa2\xc2\x80\xc2\x99t'
p3105
I1
tp3106
a(S'starsky'
p3107
I1
tp3108
a(S'phillip'
p3109
I1
tp3110
a(S'des'
p3111
I1
tp3112
a(S'showin\xc3\xa2\xc2\x80\xc2\x99'
p3113
I1
tp3114
a(S'coalition'
p3115
I1
tp3116
a(S'huge'
p3117
I1
tp3118
a(S'mall'
p3119
I1
tp3120
a(S'hermione'
p3121
I1
tp3122
a(S'berts'
p3123
I1
tp3124
a(S'selassie'
p3125
I1
tp3126
a(S'sawed-off'
p3127
I1
tp3128
a(S'morty'
p3129
I1
tp3130
a(S'medical'
p3131
I1
tp3132
a(S'pro'
p3133
I1
tp3134
a(S'socal'
p3135
I1
tp3136
a(S'sike'
p3137
I1
tp3138
a(S'biden'
p3139
I1
tp3140
a(S'afta'
p3141
I1
tp3142
a(S'will.i.am'
p3143
I1
tp3144
a(S'breakup'
p3145
I1
tp3146
a(S"'99"
p3147
I1
tp3148
a(S'caprice'
p3149
I1
tp3150
a(S'veuve'
p3151
I1
tp3152
a(S't.v'
p3153
I1
tp3154
a(S'court'
p3155
I1
tp3156
a(S'\xc3\xa2\xc2\x80\xc2\x9clove'
p3157
I1
tp3158
a(S'rememberin'
p3159
I1
tp3160
a(S'pulaksi'
p3161
I1
tp3162
a(S't.d'
p3163
I1
tp3164
a(S'gisele'
p3165
I1
tp3166
a(S'bentleys'
p3167
I1
tp3168
a(S't.l'
p3169
I1
tp3170
a(S'spinnin'
p3171
I1
tp3172
a(S'goat'
p3173
I1
tp3174
a(S'crusoe'
p3175
I1
tp3176
a(S'rastafari'
p3177
I1
tp3178
a(S'seoul'
p3179
I1
tp3180
a(S'charms'
p3181
I1
tp3182
a(S'minivan'
p3183
I1
tp3184
a(S'mobille'
p3185
I1
tp3186
a(S'langley'
p3187
I1
tp3188
a(S'rudy'
p3189
I1
tp3190
a(S'authentic'
p3191
I1
tp3192
a(S'obi-wan'
p3193
I1
tp3194
a(S'symbolize'
p3195
I1
tp3196
a(S'pangaea'
p3197
I1
tp3198
a(S'leroy'
p3199
I1
tp3200
a(S'pucker'
p3201
I1
tp3202
a(S'grande'
p3203
I1
tp3204
a(S'vintage'
p3205
I1
tp3206
a(S'mingle'
p3207
I1
tp3208
a(S'stewart'
p3209
I1
tp3210
a(S'began'
p3211
I1
tp3212
a(S'narwhal'
p3213
I1
tp3214
a(S'd-dot'
p3215
I1
tp3216
a(S'hm'
p3217
I1
tp3218
a(S'serenade'
p3219
I1
tp3220
a(S'jordans'
p3221
I1
tp3222
a(S'played'
p3223
I1
tp3224
a(S'sister'
p3225
I1
tp3226
a(S'mission'
p3227
I1
tp3228
a(S'ark/arc'
p3229
I1
tp3230
a(S'trade'
p3231
I1
tp3232
a(S'held'
p3233
I1
tp3234
a(S'bismarck'
p3235
I1
tp3236
a(S'mcdonalds'
p3237
I1
tp3238
a(S'stealin'
p3239
I1
tp3240
a(S'avenue'
p3241
I1
tp3242
a(S'sharapova'
p3243
I1
tp3244
a(S'goines'
p3245
I1
tp3246
a(S'nordstrom'
p3247
I1
tp3248
a(S'pcs'
p3249
I1
tp3250
a(S'heron'
p3251
I1
tp3252
a(S'boson'
p3253
I1
tp3254
a(S'mattress'
p3255
I1
tp3256
a(S'mable'
p3257
I1
tp3258
a(S'wussup'
p3259
I1
tp3260
a(S'stephen'
p3261
I1
tp3262
a(S'damme'
p3263
I1
tp3264
a(S'cutie'
p3265
I1
tp3266
a(S'alter'
p3267
I1
tp3268
a(S'keyvin'
p3269
I1
tp3270
a(S'fool'
p3271
I1
tp3272
a(S'hurting'
p3273
I1
tp3274
a(S'ym'
p3275
I1
tp3276
a(S'jeepers'
p3277
I1
tp3278
a(S'uhn'
p3279
I1
tp3280
a(S'm\xc3\x83\xc2\xb6et'
p3281
I1
tp3282
a(S'kerrie'
p3283
I1
tp3284
a(S'okc'
p3285
I1
tp3286
a(S'vaughn'
p3287
I1
tp3288
a(S'k\xc3\xa2\xc2\x80\xc2\x99s'
p3289
I1
tp3290
a(S'staples'
p3291
I1
tp3292
a(S'mystery'
p3293
I1
tp3294
a(S'robbie'
p3295
I1
tp3296
a(S'rockafella'
p3297
I1
tp3298
a(S'everytime'
p3299
I1
tp3300
a(S'sundays'
p3301
I1
tp3302
a(S'lizzie'
p3303
I1
tp3304
a(S'elegar'
p3305
I1
tp3306
a(S'anarchy+'
p3307
I1
tp3308
a(S"michel'le"
p3309
I1
tp3310
a(S'malone'
p3311
I1
tp3312
a(S'goofy'
p3313
I1
tp3314
a(S'chandra'
p3315
I1
tp3316
a(S"i'll-i"
p3317
I1
tp3318
a(S'fairy'
p3319
I1
tp3320
a(S'fucktown'
p3321
I1
tp3322
a(S'gnarls'
p3323
I1
tp3324
a(S'restless'
p3325
I1
tp3326
a(S'weight'
p3327
I1
tp3328
a(S'mai'
p3329
I1
tp3330
a(S'haley'
p3331
I1
tp3332
a(S'queenpin'
p3333
I1
tp3334
a(S'connect'
p3335
I1
tp3336
a(S'fist'
p3337
I1
tp3338
a(S'calumet'
p3339
I1
tp3340
a(S'blues'
p3341
I1
tp3342
a(S'thing'
p3343
I1
tp3344
a(S'patronin'
p3345
I1
tp3346
a(S'artell'
p3347
I1
tp3348
a(S'flee'
p3349
I1
tp3350
a(S'gus'
p3351
I1
tp3352
a(S'ernie'
p3353
I1
tp3354
a(S'ballin'
p3355
I1
tp3356
a(S'explorin'
p3357
I1
tp3358
a(S'douglas'
p3359
I1
tp3360
a(S'jolly'
p3361
I1
tp3362
a(S'lucifer'
p3363
I1
tp3364
a(S'bazooka'
p3365
I1
tp3366
a(S'cooke'
p3367
I1
tp3368
a(S'rove'
p3369
I1
tp3370
a(S'textin'
p3371
I1
tp3372
a(S'campin'
p3373
I1
tp3374
a(S'vibe'
p3375
I1
tp3376
a(S'bulls'
p3377
I1
tp3378
a(S'reason'
p3379
I1
tp3380
a(S'cirque'
p3381
I1
tp3382
a(S'teach'
p3383
I1
tp3384
a(S'ash'
p3385
I1
tp3386
a(S'cookin'
p3387
I1
tp3388
a(S'revolutionary'
p3389
I1
tp3390
a(S'lover-self'
p3391
I1
tp3392
a(S'tsunamis'
p3393
I1
tp3394
a(S'jet'
p3395
I1
tp3396
a(S'sylvester'
p3397
I1
tp3398
a(S'curtsey'
p3399
I1
tp3400
a(S'benji'
p3401
I1
tp3402
a(S'automobile'
p3403
I1
tp3404
a(S'innanet-net-net-net-nuh'
p3405
I1
tp3406
a(S'scared-to-face-the-world'
p3407
I1
tp3408
a(S'dabba-da-dat'
p3409
I1
tp3410
a(S'coulter'
p3411
I1
tp3412
a(S'respark'
p3413
I1
tp3414
a(S'farrakhan'
p3415
I1
tp3416
a(S'\xc3\xa2\xc2\x80\xc2\x9cyou'
p3417
I1
tp3418
a(S'superbowl'
p3419
I1
tp3420
a(S'humboldt'
p3421
I1
tp3422
a(S'gidget'
p3423
I1
tp3424
a(S'barbarian'
p3425
I1
tp3426
a(S'shabach'
p3427
I1
tp3428
a(S'done'
p3429
I1
tp3430
a(S"i'mmmm"
p3431
I1
tp3432
a(S'fiction'
p3433
I1
tp3434
a(S'heads'
p3435
I1
tp3436
a(S'jew'
p3437
I1
tp3438
a(S'gator'
p3439
I1
tp3440
a(S'kon'
p3441
I1
tp3442
a(S'gourmet'
p3443
I1
tp3444
a(S'twenty'
p3445
I1
tp3446
a(S'tata'
p3447
I1
tp3448
a(S'esau'
p3449
I1
tp3450
a(S'doomsday'
p3451
I1
tp3452
a(S'towel'
p3453
I1
tp3454
a(S'eddy'
p3455
I1
tp3456
a(S'hamptons'
p3457
I1
tp3458
a(S'karrueche'
p3459
I1
tp3460
a(S'hebru'
p3461
I1
tp3462
a(S'ph.d.'
p3463
I1
tp3464
a(S'jen'
p3465
I1
tp3466
a(S'jergens'
p3467
I1
tp3468
a(S'selassi'
p3469
I1
tp3470
a(S'norma'
p3471
I1
tp3472
a(S'scooby'
p3473
I1
tp3474
a(S'mmmm'
p3475
I1
tp3476
a(S'rany'
p3477
I1
tp3478
a(S'stairs'
p3479
I1
tp3480
a(S'l-boog'
p3481
I1
tp3482
a(S'double'
p3483
I1
tp3484
a(S'mcfly'
p3485
I1
tp3486
a(S'menzies'
p3487
I1
tp3488
a(S'grey'
p3489
I1
tp3490
a(S'banana'
p3491
I1
tp3492
a(S'mussa'
p3493
I1
tp3494
a(S'cointel'
p3495
I1
tp3496
a(S'greg'
p3497
I1
tp3498
a(S'cuff'
p3499
I1
tp3500
a(S'toe'
p3501
I1
tp3502
a(S'domino'
p3503
I1
tp3504
a(S'mickey'
p3505
I1
tp3506
a(S'breakneck'
p3507
I1
tp3508
a(S'swerve'
p3509
I1
tp3510
a(S'outta'
p3511
I1
tp3512
a(S'kart'
p3513
I1
tp3514
a(S'kennwood'
p3515
I1
tp3516
a(S'gilligan'
p3517
I1
tp3518
a(S'trendin'
p3519
I1
tp3520
a(S'aaaaahhh'
p3521
I1
tp3522
a(S'lie'
p3523
I1
tp3524
a(S'exposin'
p3525
I1
tp3526
a(S'lin'
p3527
I1
tp3528
a(S'blackjack'
p3529
I1
tp3530
a(S'cosell'
p3531
I1
tp3532
a(S'liu'
p3533
I1
tp3534
a(S'machado'
p3535
I1
tp3536
a(S'dayglo'
p3537
I1
tp3538
a(S'sneakin'
p3539
I1
tp3540
a(S'brrrang'
p3541
I1
tp3542
a(S'parm'
p3543
I1
tp3544
a(S'liz'
p3545
I1
tp3546
a(S'zucchini'
p3547
I1
tp3548
a(S'macs'
p3549
I1
tp3550
a(S'n.y.'
p3551
I1
tp3552
a(S'quote'
p3553
I1
tp3554
a(S'fresco'
p3555
I1
tp3556
a(S'macy'
p3557
I1
tp3558
a(S'alesis'
p3559
I1
tp3560
a(S'crash'
p3561
I1
tp3562
a(S'cigarette'
p3563
I1
tp3564
a(S'inhalin'
p3565
I1
tp3566
a(S'kap'
p3567
I1
tp3568
a(S'charm'
p3569
I1
tp3570
a(S'aires'
p3571
I1
tp3572
a(S'nothing'
p3573
I1
tp3574
a(S'mack'
p3575
I1
tp3576
a(S'splat'
p3577
I1
tp3578
a(S'bed'
p3579
I1
tp3580
a(S'totin'
p3581
I1
tp3582
a(S'drifty'
p3583
I1
tp3584
a(S'cabrini'
p3585
I1
tp3586
a(S'kd'
p3587
I1
tp3588
a(S'kk'
p3589
I1
tp3590
a(S'into'
p3591
I1
tp3592
a(S'lesson\xc3\xa2\xc2\x80\xc2\x99s'
p3593
I1
tp3594
a(S'ziggy'
p3595
I1
tp3596
a(S'buncha'
p3597
I1
tp3598
a(S'barren'
p3599
I1
tp3600
a(S'weigh'
p3601
I1
tp3602
a(S't-pain'
p3603
I1
tp3604
a(S'blend'
p3605
I1
tp3606
a(S'shoutout'
p3607
I1
tp3608
a(S'emcee'
p3609
I1
tp3610
a(S'hypes'
p3611
I1
tp3612
a(S'beldina'
p3613
I1
tp3614
a(S'heavena'
p3615
I1
tp3616
a(S'tenet'
p3617
I1
tp3618
a(S'carne'
p3619
I1
tp3620
a(S'choyoyoyyoyoyyng'
p3621
I1
tp3622
a(S'target'
p3623
I1
tp3624
a(S'car'
p3625
I1
tp3626
a(S'dmt'
p3627
I1
tp3628
a(S'madonnas'
p3629
I1
tp3630
a(S'kennedys'
p3631
I1
tp3632
a(S'booyaka'
p3633
I1
tp3634
a(S'streetlights'
p3635
I1
tp3636
a(S'gambles'
p3637
I1
tp3638
a(S'scooter'
p3639
I1
tp3640
a(S'sadier'
p3641
I1
tp3642
a(S'm\xc3\xa2\xc2\x80\xc2\x99s'
p3643
I1
tp3644
a(S'adefo'
p3645
I1
tp3646
a(S'jann'
p3647
I1
tp3648
a(S'cuba'
p3649
I1
tp3650
a(S'cuomo'
p3651
I1
tp3652
a(S'tunchi'
p3653
I1
tp3654
a(S'ballet'
p3655
I1
tp3656
a(S'nam'
p3657
I1
tp3658
a(S'sunny'
p3659
I1
tp3660
a(S'zulu'
p3661
I1
tp3662
a(S'shay'
p3663
I1
tp3664
a(S'nautia'
p3665
I1
tp3666
a(S'theft'
p3667
I1
tp3668
a(S'cota'
p3669
I1
tp3670
a(S'marni'
p3671
I1
tp3672
a(S'mahal'
p3673
I1
tp3674
a(S'wynn'
p3675
I1
tp3676
a(S'silk'
p3677
I1
tp3678
a(S'redeemin'
p3679
I1
tp3680
a(S'enemy'
p3681
I1
tp3682
a(S'sacrificed'
p3683
I1
tp3684
a(S'bird'
p3685
I1
tp3686
a(S'lewinsky'
p3687
I1
tp3688
a(S'diggin'
p3689
I1
tp3690
a(S'gospel'
p3691
I1
tp3692
a(S'river'
p3693
I1
tp3694
a(S'shootin'
p3695
I1
tp3696
a(S'bart'
p3697
I1
tp3698
a(S'creator'
p3699
I1
tp3700
a(S'tamperin'
p3701
I1
tp3702
a(S'vibin'
p3703
I1
tp3704
a(S'durin'
p3705
I1
tp3706
a(S'angelina'
p3707
I1
tp3708
a(S'dumb'
p3709
I1
tp3710
a(S'bari'
p3711
I1
tp3712
a(S'branson'
p3713
I1
tp3714
a(S'arm'
p3715
I1
tp3716
a(S'chose'
p3717
I1
tp3718
a(S'trey'
p3719
I1
tp3720
a(S'ritz'
p3721
I1
tp3722
a(S'voltron'
p3723
I1
tp3724
a(S'd.m.c'
p3725
I1
tp3726
a(S'pootie'
p3727
I1
tp3728
a(S'dayton'
p3729
I1
tp3730
a(S'won'
p3731
I1
tp3732
a(S'x32'
p3733
I1
tp3734
a(S'rita'
p3735
I1
tp3736
a(S'solo'
p3737
I1
tp3738
a(S'tristan'
p3739
I1
tp3740
a(S'rubbin'
p3741
I1
tp3742
a(S'manilow'
p3743
I1
tp3744
a(S'marilyn'
p3745
I1
tp3746
a(S'bride'
p3747
I1
tp3748
a(S'license'
p3749
I1
tp3750
a(S'downey'
p3751
I1
tp3752
a(S"o'neil"
p3753
I1
tp3754
a(S'nanana'
p3755
I1
tp3756
a(S'thor'
p3757
I1
tp3758
a(S'fuckyou'
p3759
I1
tp3760
a(S'harpo'
p3761
I1
tp3762
a(S'whole'
p3763
I1
tp3764
a(S'ozs'
p3765
I1
tp3766
a(S'lupin'
p3767
I1
tp3768
a(S'carleen'
p3769
I1
tp3770
a(S'majesty'
p3771
I1
tp3772
a(S'gumpin'
p3773
I1
tp3774
a(S'capleton'
p3775
I1
tp3776
a(S'gypsy'
p3777
I1
tp3778
a(S'fashion'
p3779
I1
tp3780
a(S'simply'
p3781
I1
tp3782
a(S'church'
p3783
I1
tp3784
a(S'bench'
p3785
I1
tp3786
a(S'alesha'
p3787
I1
tp3788
a(S'platinum'
p3789
I1
tp3790
a(S'tanisha'
p3791
I1
tp3792
a(S'ballantine'
p3793
I1
tp3794
a(S'dibble'
p3795
I1
tp3796
a(S'whos'
p3797
I1
tp3798
a(S'pb'
p3799
I1
tp3800
a(S'pa'
p3801
I1
tp3802
a(S'woke'
p3803
I1
tp3804
a(S'pm'
p3805
I1
tp3806
a(S'flight'
p3807
I1
tp3808
a(S'kunte'
p3809
I1
tp3810
a(S'dropout'
p3811
I1
tp3812
a(S'gas'
p3813
I1
tp3814
a(S'cinco'
p3815
I1
tp3816
a(S'dealerships'
p3817
I1
tp3818
a(S'exquisite'
p3819
I1
tp3820
a(S'perrier'
p3821
I1
tp3822
a(S'wouldn\xc3\xa2\xc2\x80\xc2\x99t'
p3823
I1
tp3824
a(S'stolen'
p3825
I1
tp3826
a(S'raw'
p3827
I1
tp3828
a(S'errol'
p3829
I1
tp3830
a(S'rat'
p3831
I1
tp3832
a(S'kodak'
p3833
I1
tp3834
a(S'kara'
p3835
I1
tp3836
a(S'smart'
p3837
I1
tp3838
a(S'heyy'
p3839
I1
tp3840
a(S'kareem'
p3841
I1
tp3842
a(S'cleopatra'
p3843
I1
tp3844
a(S'pack'
p3845
I1
tp3846
a(S'madoff'
p3847
I1
tp3848
a(S'costly'
p3849
I1
tp3850
a(S'tippedy'
p3851
I1
tp3852
a(S'kok'
p3853
I1
tp3854
a(S'calvin'
p3855
I1
tp3856
a(S'sweatin'
p3857
I1
tp3858
a(S'triple'
p3859
I1
tp3860
a(S'stoves'
p3861
I1
tp3862
a(S'm.j.'
p3863
I1
tp3864
a(S'rib'
p3865
I1
tp3866
a(S'monroe'
p3867
I1
tp3868
a(S'chauffeur'
p3869
I1
tp3870
a(S'raiders'
p3871
I1
tp3872
a(S'fate'
p3873
I1
tp3874
a(S'aalegra'
p3875
I1
tp3876
a(S'atcq'
p3877
I1
tp3878
a(S'rules'
p3879
I1
tp3880
a(S'hedwig'
p3881
I1
tp3882
a(S'perrierin'
p3883
I1
tp3884
a(S'viola'
p3885
I1
tp3886
a(S'federer'
p3887
I1
tp3888
a(S'yoga'
p3889
I1
tp3890
a(S'spears'
p3891
I1
tp3892
a(S'snappin'
p3893
I1
tp3894
a(S'blair'
p3895
I1
tp3896
a(S'backstreet'
p3897
I1
tp3898
a(S'muffett'
p3899
I1
tp3900
a(S'bartlett'
p3901
I1
tp3902
a(S'j.b.'
p3903
I1
tp3904
a(S'stack'
p3905
I1
tp3906
a(S'beanie'
p3907
I1
tp3908
a(S'awol'
p3909
I1
tp3910
a(S'person'
p3911
I1
tp3912
a(S'b.j'
p3913
I1
tp3914
a(S'plastikman'
p3915
I1
tp3916
a(S'grid'
p3917
I1
tp3918
a(S'two-step'
p3919
I1
tp3920
a(S'sybaris'
p3921
I1
tp3922
a(S'watching'
p3923
I1
tp3924
a(S'alvin'
p3925
I1
tp3926
a(S'ms.golper'
p3927
I1
tp3928
a(S'c-notes'
p3929
I1
tp3930
a(S'makayla'
p3931
I1
tp3932
a(S'tyco'
p3933
I1
tp3934
a(S'lawry'
p3935
I1
tp3936
a(S'cocky'
p3937
I1
tp3938
a(S'heinekens'
p3939
I1
tp3940
a(S'forrest'
p3941
I1
tp3942
a(S'mmm-mmm-mmm'
p3943
I1
tp3944
a(S'f.f'
p3945
I1
tp3946
a(S'sprinter'
p3947
I1
tp3948
a(S'guwop'
p3949
I1
tp3950
a(S'cemetery'
p3951
I1
tp3952
a(S'nikko'
p3953
I1
tp3954
a(S'neewteb'
p3955
I1
tp3956
a(S'barack'
p3957
I1
tp3958
a(S'huet'
p3959
I1
tp3960
a(S'pompeii'
p3961
I1
tp3962
a(S'hater'
p3963
I1
tp3964
a(S"pi'erre"
p3965
I1
tp3966
a(S'trickin'
p3967
I1
tp3968
a(S'march'
p3969
I1
tp3970
a(S'k-mart'
p3971
I1
tp3972
a(S'greek'
p3973
I1
tp3974
a(S'ix-nay'
p3975
I1
tp3976
a(S'ave.'
p3977
I1
tp3978
a(S'awaken'
p3979
I1
tp3980
a(S'jacksonville'
p3981
I1
tp3982
a(S'moody'
p3983
I1
tp3984
a(S'knock'
p3985
I1
tp3986
a(S'\xc3\xa2\xc2\x80\xc2\x9cwhere'
p3987
I1
tp3988
a(S'herzog'
p3989
I1
tp3990
a(S'drk'
p3991
I1
tp3992
a(S'donny'
p3993
I1
tp3994
a(S'leon-a'
p3995
I1
tp3996
a(S'eee'
p3997
I1
tp3998
a(S'candice'
p3999
I1
tp4000
a(S'b-boyz'
p4001
I1
tp4002
a(S'ptsd'
p4003
I1
tp4004
a(S'melville'
p4005
I1
tp4006
a(S'mathematical'
p4007
I1
tp4008
a(S'gill'
p4009
I1
tp4010
a(S'kelis'
p4011
I1
tp4012
a(S'google'
p4013
I1
tp4014
a(S'saturdays'
p4015
I1
tp4016
a(S'hebrews'
p4017
I1
tp4018
a(S'drove'
p4019
I1
tp4020
a(S'b.'
p4021
I1
tp4022
a(S'mighta'
p4023
I1
tp4024
a(S'coney'
p4025
I1
tp4026
a(S'd-boy'
p4027
I1
tp4028
a(S'bergdorf'
p4029
I1
tp4030
a(S'b8'
p4031
I1
tp4032
a(S'kat'
p4033
I1
tp4034
a(S'smoking'
p4035
I1
tp4036
a(S'savage'
p4037
I1
tp4038
a(S'yves'
p4039
I1
tp4040
a(S'segul'
p4041
I1
tp4042
a(S'mummy'
p4043
I1
tp4044
a(S'k-rock'
p4045
I1
tp4046
a(S'pep'
p4047
I1
tp4048
a(S'we\xc3\xa2\xc2\x80\xc2\x99ve'
p4049
I1
tp4050
a(S'newark'
p4051
I1
tp4052
a(S'prom'
p4053
I1
tp4054
a(S'sermon'
p4055
I1
tp4056
a(S'goldman'
p4057
I1
tp4058
a(S'four-four'
p4059
I1
tp4060
a(S'q-tip'
p4061
I1
tp4062
a(S'blackberry'
p4063
I1
tp4064
a(S'bd'
p4065
I1
tp4066
a(S'musicland'
p4067
I1
tp4068
a(S'my\xc3\xa2\xc2\x80\xc2\x94my'
p4069
I1
tp4070
a(S'bm'
p4071
I1
tp4072
a(S'bk'
p4073
I1
tp4074
a(S'step'
p4075
I1
tp4076
a(S'blastin\xc3\xa2\xc2\x80\xc2\x99'
p4077
I1
tp4078
a(S'diamand'
p4079
I1
tp4080
a(S'bs'
p4081
I1
tp4082
a(S'everyday'
p4083
I1
tp4084
a(S'tidal'
p4085
I1
tp4086
a(S'nells'
p4087
I1
tp4088
a(S'bx'
p4089
I1
tp4090
a(S'shine'
p4091
I1
tp4092
a(S'inter'
p4093
I1
tp4094
a(S'housekeeping'
p4095
I1
tp4096
a(S'netflix'
p4097
I1
tp4098
a(S'hatchet'
p4099
I1
tp4100
a(S'maintainin'
p4101
I1
tp4102
a(S'truck'
p4103
I1
tp4104
a(S'cece'
p4105
I1
tp4106
a(S'idi'
p4107
I1
tp4108
a(S'hatred'
p4109
I1
tp4110
a(S'mmmmhmmm'
p4111
I1
tp4112
a(S'shiny'
p4113
I1
tp4114
a(S'blossom'
p4115
I1
tp4116
a(S'rollo'
p4117
I1
tp4118
a(S'lollipop'
p4119
I1
tp4120
a(S'clinton'
p4121
I1
tp4122
a(S'twelve'
p4123
I1
tp4124
a(S'antrhax'
p4125
I1
tp4126
a(S'conquest'
p4127
I1
tp4128
a(S'nonsense'
p4129
I1
tp4130
a(S'icebreaker'
p4131
I1
tp4132
a(S'lesson'
p4133
I1
tp4134
a(S'katie'
p4135
I1
tp4136
a(S'hines'
p4137
I1
tp4138
a(S'sonny'
p4139
I1
tp4140
a(S'verbal'
p4141
I1
tp4142
a(S'few'
p4143
I1
tp4144
a(S'p-a-c'
p4145
I1
tp4146
a(S'deathmatch'
p4147
I1
tp4148
a(S'tesla'
p4149
I1
tp4150
a(S'chauncey'
p4151
I1
tp4152
a(S'yeezus'
p4153
I1
tp4154
a(S'summertime'
p4155
I1
tp4156
a(S'forward'
p4157
I1
tp4158
a(S'kamikaze'
p4159
I1
tp4160
a(S'maria'
p4161
I1
tp4162
a(S'do-si-do'
p4163
I1
tp4164
a(S'blockin'
p4165
I1
tp4166
a(S'laffy'
p4167
I1
tp4168
a(S'ving'
p4169
I1
tp4170
a(S'fentanyl'
p4171
I1
tp4172
a(S'familia'
p4173
I1
tp4174
a(S'boyz'
p4175
I1
tp4176
a(S'maaco'
p4177
I1
tp4178
a(S'line'
p4179
I1
tp4180
a(S'g4s'
p4181
I1
tp4182
a(S'.i'
p4183
I1
tp4184
a(S'clips'
p4185
I1
tp4186
a(S'today'
p4187
I1
tp4188
a(S'wicked'
p4189
I1
tp4190
a(S'groove'
p4191
I1
tp4192
a(S'hell\xc3\xa2\xc2\x80\xc2\x99s'
p4193
I1
tp4194
a(S'prolifical'
p4195
I1
tp4196
a(S'savemula'
p4197
I1
tp4198
a(S'baba'
p4199
I1
tp4200
a(S'sometimes'
p4201
I1
tp4202
a(S'curren'
p4203
I1
tp4204
a(S'showtime'
p4205
I1
tp4206
a(S'lps'
p4207
I1
tp4208
a(S'lanvin'
p4209
I1
tp4210
a(S'motrin'
p4211
I1
tp4212
a(S'rockefeller'
p4213
I1
tp4214
a(S'single'
p4215
I1
tp4216
a(S'murphy\xc3\xa2\xc2\x80\xc2\x99s'
p4217
I1
tp4218
a(S'd-cop'
p4219
I1
tp4220
a(S'kerry'
p4221
I1
tp4222
a(S'doe'
p4223
I1
tp4224
a(S'archbishop'
p4225
I1
tp4226
a(S'a-r'
p4227
I1
tp4228
a(S'lemon'
p4229
I1
tp4230
a(S'peach'
p4231
I1
tp4232
a(S'tanean'
p4233
I1
tp4234
a(S'thanks'
p4235
I1
tp4236
a(S'hit-boy'
p4237
I1
tp4238
a(S'moca'
p4239
I1
tp4240
a(S'mayonnaise'
p4241
I1
tp4242
a(S'manhattan'
p4243
I1
tp4244
a(S'draw'
p4245
I1
tp4246
a(S'invitin'
p4247
I1
tp4248
a(S'mustard'
p4249
I1
tp4250
a(S'smiley'
p4251
I1
tp4252
a(S'regina'
p4253
I1
tp4254
a(S'medina'
p4255
I1
tp4256
a(S'flatbush'
p4257
I1
tp4258
a(S'king\xc3\xa2\xc2\x80\xc2\x99s'
p4259
I1
tp4260
a(S'rih\xc3\xa2\xc2\x80\xc2\x99'
p4261
I1
tp4262
a(S'flowin'
p4263
I1
tp4264
a(S'kenan'
p4265
I1
tp4266
a(S"o'reilly"
p4267
I1
tp4268
a(S'wonton'
p4269
I1
tp4270
a(S'land'
p4271
I1
tp4272
a(S'c.s'
p4273
I1
tp4274
a(S'cribs'
p4275
I1
tp4276
a(S'snipe'
p4277
I1
tp4278
a(S'yamela'
p4279
I1
tp4280
a(S'shaw'
p4281
I1
tp4282
a(S'gang-banging'
p4283
I1
tp4284
a(S'haaan'
p4285
I1
tp4286
a(S'oracle'
p4287
I1
tp4288
a(S'nash'
p4289
I1
tp4290
a(S'benz\xc3\xa2\xc2\x80\xc2\x99s'
p4291
I1
tp4292
a(S'dvr'
p4293
I1
tp4294
a(S'mardi'
p4295
I1
tp4296
a(S'northside'
p4297
I1
tp4298
a(S'code'
p4299
I1
tp4300
a(S'edd'
p4301
I1
tp4302
a(S'scratch'
p4303
I1
tp4304
a(S'velarde'
p4305
I1
tp4306
a(S'lotti'
p4307
I1
tp4308
a(S'windy'
p4309
I1
tp4310
a(S'swaggy'
p4311
I1
tp4312
a(S'beyon'
p4313
I1
tp4314
a(S'freakin'
p4315
I1
tp4316
a(S'gm'
p4317
I1
tp4318
a(S'chillin'
p4319
I1
tp4320
a(S'seemed'
p4321
I1
tp4322
a(S'erving'
p4323
I1
tp4324
a(S'chapo'
p4325
I1
tp4326
a(S'j.cole'
p4327
I1
tp4328
a(S'beyonce\xc3\xa2\xc2\x80\xc2\x99s'
p4329
I1
tp4330
a(S'suave'
p4331
I1
tp4332
a(S'kwa-li'
p4333
I1
tp4334
a(S'nell'
p4335
I1
tp4336
a(S'blaze'
p4337
I1
tp4338
a(S'exit'
p4339
I1
tp4340
a(S'maryland'
p4341
I1
tp4342
a(S'snipes'
p4343
I1
tp4344
a(S'wikipedia'
p4345
I1
tp4346
a(S'family'
p4347
I1
tp4348
a(S'breathing'
p4349
I1
tp4350
a(S'tuto'
p4351
I1
tp4352
a(S'boucher'
p4353
I1
tp4354
a(S'pecol'
p4355
I1
tp4356
a(S'lopez'
p4357
I1
tp4358
a(S'wavy'
p4359
I1
tp4360
a(S'tubman'
p4361
I1
tp4362
a(S'vls'
p4363
I1
tp4364
a(S'squirt'
p4365
I1
tp4366
a(S'bryant'
p4367
I1
tp4368
a(S'tri'
p4369
I1
tp4370
a(S'mlk'
p4371
I1
tp4372
a(S'tokyo'
p4373
I1
tp4374
a(S'julius'
p4375
I1
tp4376
a(S'farragamo'
p4377
I1
tp4378
a(S'phds'
p4379
I1
tp4380
a(S'g.d.'
p4381
I1
tp4382
a(S'dealt'
p4383
I1
tp4384
a(S'cap'
p4385
I1
tp4386
a(S'crow'
p4387
I1
tp4388
a(S"hold'em"
p4389
I1
tp4390
a(S'ocho'
p4391
I1
tp4392
a(S'rivers'
p4393
I1
tp4394
a(S'barnies'
p4395
I1
tp4396
a(S'prive'
p4397
I1
tp4398
a(S'plead'
p4399
I1
tp4400
a(S'carlo'
p4401
I1
tp4402
a(S'rivera'
p4403
I1
tp4404
a(S'rudloph'
p4405
I1
tp4406
a(S'homeskillet'
p4407
I1
tp4408
a(S'altima'
p4409
I1
tp4410
a(S'ye\xc3\xa2\xc2\x80\xc2\x99'
p4411
I1
tp4412
a(S'tuesdays'
p4413
I1
tp4414
a(S'sangria'
p4415
I1
tp4416
a(S'chicage'
p4417
I1
tp4418
a(S'paddle'
p4419
I1
tp4420
a(S'valet'
p4421
I1
tp4422
a(S'puddin'
p4423
I1
tp4424
a(S'vega'
p4425
I1
tp4426
a(S'bds'
p4427
I1
tp4428
a(S'rho'
p4429
I1
tp4430
a(S'ammunition'
p4431
I1
tp4432
a(S'phoebe'
p4433
I1
tp4434
a(S'elect'
p4435
I1
tp4436
a(S'j.ivy'
p4437
I1
tp4438
a(S'guevera'
p4439
I1
tp4440
a(S'kin-folk'
p4441
I1
tp4442
a(S'douches'
p4443
I1
tp4444
a(S'\xc3\xa2\xc2\x80\xc2\x9987'
p4445
I1
tp4446
a(S'fulfill'
p4447
I1
tp4448
a(S'sexy'
p4449
I1
tp4450
a(S'kadee'
p4451
I1
tp4452
a(S'cardi'
p4453
I1
tp4454
a(S'kriss'
p4455
I1
tp4456
a(S'translate'
p4457
I1
tp4458
a(S'talent'
p4459
I1
tp4460
a(S'eastside'
p4461
I1
tp4462
a(S'casino'
p4463
I1
tp4464
a(S'justice'
p4465
I1
tp4466
a(S'garcon'
p4467
I1
tp4468
a(S'defeat'
p4469
I1
tp4470
a(S'ashland'
p4471
I1
tp4472
a(S"'nam"
p4473
I1
tp4474
a(S'climb'
p4475
I1
tp4476
a(S'gene'
p4477
I1
tp4478
a(S'makes'
p4479
I1
tp4480
a(S"pos'nus"
p4481
I1
tp4482
a(S'reynoldo'
p4483
I1
tp4484
a(S'cruisin'
p4485
I1
tp4486
a(S'henner'
p4487
I1
tp4488
a(S'private'
p4489
I1
tp4490
a(S'gses'
p4491
I1
tp4492
a(S'c-note'
p4493
I1
tp4494
a(S'goldeneye'
p4495
I1
tp4496
a(S'cut-cut'
p4497
I1
tp4498
a(S'sugar'
p4499
I1
tp4500
a(S'kraftwerk'
p4501
I1
tp4502
a(S'aldo'
p4503
I1
tp4504
a(S'thirsty'
p4505
I1
tp4506
a(S'osun'
p4507
I1
tp4508
a(S'throw'
p4509
I1
tp4510
a(S'eleven'
p4511
I1
tp4512
a(S'checkin'
p4513
I1
tp4514
a(S'chuk'
p4515
I1
tp4516
a(S'muah'
p4517
I1
tp4518
a(S'frida'
p4519
I1
tp4520
a(S'intersector'
p4521
I1
tp4522
a(S'etta'
p4523
I1
tp4524
a(S'anja'
p4525
I1
tp4526
a(S'charcoal'
p4527
I1
tp4528
a(S'parliament'
p4529
I1
tp4530
a(S'wi-fi'
p4531
I1
tp4532
a(S'jeez'
p4533
I1
tp4534
a(S'choc'
p4535
I1
tp4536
a(S'losin'
p4537
I1
tp4538
a(S'k9s'
p4539
I1
tp4540
a(S'iii'
p4541
I1
tp4542
a(S'netscape'
p4543
I1
tp4544
a(S'balls'
p4545
I1
tp4546
a(S'luger'
p4547
I1
tp4548
a(S'meek'
p4549
I1
tp4550
a(S'tae'
p4551
I1
tp4552
a(S'cairo'
p4553
I1
tp4554
a(S'bally'
p4555
I1
tp4556
a(S'olympus'
p4557
I1
tp4558
a(S'ammons'
p4559
I1
tp4560
a(S'praise'
p4561
I1
tp4562
a(S'madd'
p4563
I1
tp4564
a(S'grape'
p4565
I1
tp4566
a(S'tarantino'
p4567
I1
tp4568
a(S'sri'
p4569
I1
tp4570
a(S'bent'
p4571
I1
tp4572
a(S'monica'
p4573
I1
tp4574
a(S'raps'
p4575
I1
tp4576
a(S'billboards'
p4577
I1
tp4578
a(S'tay'
p4579
I1
tp4580
a(S'lala'
p4581
I1
tp4582
a(S'tag'
p4583
I1
tp4584
a(S'chesimard'
p4585
I1
tp4586
a(S'enrique'
p4587
I1
tp4588
a(S'kenna'
p4589
I1
tp4590
a(S'taj'
p4591
I1
tp4592
a(S'bonet'
p4593
I1
tp4594
a(S'lamb'
p4595
I1
tp4596
a(S'sir'
p4597
I1
tp4598
a(S'tao'
p4599
I1
tp4600
a(S'monoxide'
p4601
I1
tp4602
a(S'pastelle'
p4603
I1
tp4604
a(S'rippin'
p4605
I1
tp4606
a(S'hendrix'
p4607
I1
tp4608
a(S'husky'
p4609
I1
tp4610
a(S'mari'
p4611
I1
tp4612
a(S'beams'
p4613
I1
tp4614
a(S'usain'
p4615
I1
tp4616
a(S"f'real"
p4617
I1
tp4618
a(S'sin'
p4619
I1
tp4620
a(S'sosas'
p4621
I1
tp4622
a(S'p-u'
p4623
I1
tp4624
a(S'de'
p4625
I1
tp4626
a(S'spillin'
p4627
I1
tp4628
a(S'summers'
p4629
I1
tp4630
a(S'farm'
p4631
I1
tp4632
a(S'\xc3\xa2\xc2\x80\xc2\x9cawww'
p4633
I1
tp4634
a(S'fart'
p4635
I1
tp4636
a(S'wrist'
p4637
I1
tp4638
a(S'reggie'
p4639
I1
tp4640
a(S'hawk'
p4641
I1
tp4642
a(S'terrier'
p4643
I1
tp4644
a(S'soleil'
p4645
I1
tp4646
a(S'guru'
p4647
I1
tp4648
a(S'greensboro'
p4649
I1
tp4650
a(S'gundy'
p4651
I1
tp4652
a(S'lickety-split'
p4653
I1
tp4654
a(S'amerie'
p4655
I1
tp4656
a(S'hunnid'
p4657
I1
tp4658
a(S'cognacs'
p4659
I1
tp4660
a(S'ws'
p4661
I1
tp4662
a(S'petco'
p4663
I1
tp4664
a(S'rae'
p4665
I1
tp4666
a(S'lebeaus'
p4667
I1
tp4668
a(S'chibahs'
p4669
I1
tp4670
a(S'bensenville'
p4671
I1
tp4672
a(S'englewood'
p4673
I1
tp4674
a(S'haiti'
p4675
I1
tp4676
a(S'rallyin'
p4677
I1
tp4678
a(S'bunch'
p4679
I1
tp4680
a(S'glen'
p4681
I1
tp4682
a(S'spotify'
p4683
I1
tp4684
a(S'le'
p4685
I1
tp4686
a(S'outer'
p4687
I1
tp4688
a(S'nostalgia'
p4689
I1
tp4690
a(S'kindergarten'
p4691
I1
tp4692
a(S'tyrone'
p4693
I1
tp4694
a(S'testarossas'
p4695
I1
tp4696
a(S'tyler'
p4697
I1
tp4698
a(S'marsh'
p4699
I1
tp4700
a(S'monkees'
p4701
I1
tp4702
a(S'orange'
p4703
I1
tp4704
a(S'bowe/bo'
p4705
I1
tp4706
a(S'jimi'
p4707
I1
tp4708
a(S'gotham'
p4709
I1
tp4710
a(S'doodlin'
p4711
I1
tp4712
a(S'dag'
p4713
I1
tp4714
a(S'christohper'
p4715
I1
tp4716
a(S'rubik'
p4717
I1
tp4718
a(S'fefe'
p4719
I1
tp4720
a(S'auto'
p4721
I1
tp4722
a(S'practice'
p4723
I1
tp4724
a(S'k.o.'
p4725
I1
tp4726
a(S'rodman'
p4727
I1
tp4728
a(S'snake'
p4729
I1
tp4730
a(S'das'
p4731
I1
tp4732
a(S'garner'
p4733
I1
tp4734
a(S'mcdowl'
p4735
I1
tp4736
a(S'tisa'
p4737
I1
tp4738
a(S'tutankhamun'
p4739
I1
tp4740
a(S'l.'
p4741
I1
tp4742
a(S'nfl'
p4743
I1
tp4744
a(S'puffy'
p4745
I1
tp4746
a(S'ale'
p4747
I1
tp4748
a(S'blazing'
p4749
I1
tp4750
a(S'cuffed'
p4751
I1
tp4752
a(S'billy'
p4753
I1
tp4754
a(S'moses'
p4755
I1
tp4756
a(S'denzel'
p4757
I1
tp4758
a(S'trap'
p4759
I1
tp4760
a(S'whew'
p4761
I1
tp4762
a(S'stock'
p4763
I1
tp4764
a(S'chesapeake'
p4765
I1
tp4766
a(S'darco'
p4767
I1
tp4768
a(S'oui'
p4769
I1
tp4770
a(S'hathaway'
p4771
I1
tp4772
a(S'ooooooooohh'
p4773
I1
tp4774
a(S'cristal'
p4775
I1
tp4776
a(S'ieps'
p4777
I1
tp4778
a(S'polleck'
p4779
I1
tp4780
a(S'jagger'
p4781
I1
tp4782
a(S'hpnotic'
p4783
I1
tp4784
a(S'apparel'
p4785
I1
tp4786
a(S'fine'
p4787
I1
tp4788
a(S'eiht'
p4789
I1
tp4790
a(S'butch'
p4791
I1
tp4792
a(S'chyna'
p4793
I1
tp4794
a(S'borderline'
p4795
I1
tp4796
a(S'electronica'
p4797
I1
tp4798
a(S'benz-o'
p4799
I1
tp4800
a(S'rep'
p4801
I1
tp4802
a(S'stuy'
p4803
I1
tp4804
a(S'abernathy'
p4805
I1
tp4806
a(S'stayin'
p4807
I1
tp4808
a(S'strokes'
p4809
I1
tp4810
a(S'vcr'
p4811
I1
tp4812
a(S'ren'
p4813
I1
tp4814
a(S'minelli'
p4815
I1
tp4816
a(S'zimmerman'
p4817
I1
tp4818
a(S'corniche'
p4819
I1
tp4820
a(S'sacrifice'
p4821
I1
tp4822
a(S'amy'
p4823
I1
tp4824
a(S'outkast'
p4825
I1
tp4826
a(S'molly'
p4827
I1
tp4828
a(S'o.d'
p4829
I1
tp4830
a(S'salami'
p4831
I1
tp4832
a(S'bleek'
p4833
I1
tp4834
a(S'que'
p4835
I1
tp4836
a(S'sittin\xc3\xa2\xc2\x80\xc2\x99and'
p4837
I1
tp4838
a(S'bassett'
p4839
I1
tp4840
a(S'scary'
p4841
I1
tp4842
a(S'wheeling'
p4843
I1
tp4844
a(S'digga-da'
p4845
I1
tp4846
a(S'irs'
p4847
I1
tp4848
a(S'bougie'
p4849
I1
tp4850
a(S'derick'
p4851
I1
tp4852
a(S'chillz'
p4853
I1
tp4854
a(S'osborne'
p4855
I1
tp4856
a(S'f-f'
p4857
I1
tp4858
a(S'finest'
p4859
I1
tp4860
a(S'airbnbs'
p4861
I1
tp4862
a(S'taco'
p4863
I1
tp4864
a(S'cottontale'
p4865
I1
tp4866
a(S'jizzle'
p4867
I1
tp4868
a(S'c3pos'
p4869
I1
tp4870
a(S'collagen'
p4871
I1
tp4872
a(S'hahahaha'
p4873
I1
tp4874
a(S'set'
p4875
I1
tp4876
a(S'ties'
p4877
I1
tp4878
a(S'cousin'
p4879
I1
tp4880
a(S'facin'
p4881
I1
tp4882
a(S'has'
p4883
I1
tp4884
a(S'bears'
p4885
I1
tp4886
a(S'myspace'
p4887
I1
tp4888
a(S'accent'
p4889
I1
tp4890
a(S'handcuffed'
p4891
I1
tp4892
a(S'missy'
p4893
I1
tp4894
a(S'cuzzo'
p4895
I1
tp4896
a(S'skrrrrrr'
p4897
I1
tp4898
a(S'georgetown'
p4899
I1
tp4900
a(S'malibu'
p4901
I1
tp4902
a(S'gear'
p4903
I1
tp4904
a(S'rockwell'
p4905
I1
tp4906
a(S'getcha'
p4907
I1
tp4908
a(S'travi'
p4909
I1
tp4910
a(S'gotcha'
p4911
I1
tp4912
a(S'cris'
p4913
I1
tp4914
a(S'aryan'
p4915
I1
tp4916
a(S'july'
p4917
I1
tp4918
a(S'botox'
p4919
I1
tp4920
a(S'institution'
p4921
I1
tp4922
a(S'goku'
p4923
I1
tp4924
a(S'steel'
p4925
I1
tp4926
a(S'bel'
p4927
I1
tp4928
a(S'kickback'
p4929
I1
tp4930
a(S'yippedy'
p4931
I1
tp4932
a(S'shampoo'
p4933
I1
tp4934
a(S'moncler'
p4935
I1
tp4936
a(S'claim'
p4937
I1
tp4938
a(S'kissin'
p4939
I1
tp4940
a(S'maybe'
p4941
I1
tp4942
a(S'leslie'
p4943
I1
tp4944
a(S'kubrick'
p4945
I1
tp4946
a(S'twos'
p4947
I1
tp4948
a(S'\xc3\xa2\xc2\x80\xc2\x98im'
p4949
I1
tp4950
a(S'piff'
p4951
I1
tp4952
a(S'p.s'
p4953
I1
tp4954
a(S'cohen'
p4955
I1
tp4956
a(S'growin'
p4957
I1
tp4958
a(S'gunshots'
p4959
I1
tp4960
a(S'p.m'
p4961
I1
tp4962
a(S'corona'
p4963
I1
tp4964
a(S'keller'
p4965
I1
tp4966
a(S'blockbuster'
p4967
I1
tp4968
a(S'p.e'
p4969
I1
tp4970
a(S'doverman'
p4971
I1
tp4972
a(S'boyyy'
p4973
I1
tp4974
a(S'mil'
p4975
I1
tp4976
a(S'milly'
p4977
I1
tp4978
a(S'yugoslavi'
p4979
I1
tp4980
a(S'lili'
p4981
I1
tp4982
a(S'pulaski'
p4983
I1
tp4984
a(S'mix'
p4985
I1
tp4986
a(S'calgon'
p4987
I1
tp4988
a(S'scony'
p4989
I1
tp4990
a(S'plato'
p4991
I1
tp4992
a(S'noches'
p4993
I1
tp4994
a(S'alton'
p4995
I1
tp4996
a(S'candyman'
p4997
I1
tp4998
a(S'sevalas'
p4999
I1
tp5000
a(S'who'
p5001
I1
tp5002
a(S'suicide-ielago'
p5003
I1
tp5004
a(S'nostrand'
p5005
I1
tp5006
a(S'sekendall'
p5007
I1
tp5008
a(S'eight'
p5009
I1
tp5010
a(S'tattoos'
p5011
I1
tp5012
a(S'g-450'
p5013
I1
tp5014
a(S'awe'
p5015
I1
tp5016
a(S'montano'
p5017
I1
tp5018
a(S'doogie'
p5019
I1
tp5020
a(S'laurent'
p5021
I1
tp5022
a(S'm-m-mercy'
p5023
I1
tp5024
a(S'thanksgiving'
p5025
I1
tp5026
a(S'pipe'
p5027
I1
tp5028
a(S'ah-get'
p5029
I1
tp5030
a(S'fiasco'
p5031
I1
tp5032
a(S'brew'
p5033
I1
tp5034
a(S'indo'
p5035
I1
tp5036
a(S'deng'
p5037
I1
tp5038
a(S'fact'
p5039
I1
tp5040
a(S'thomases'
p5041
I1
tp5042
a(S'wonka'
p5043
I1
tp5044
a(S'henry'
p5045
I1
tp5046
a(S'muy'
p5047
I1
tp5048
a(S'stove'
p5049
I1
tp5050
a(S'anyway'
p5051
I1
tp5052
a(S'hamlet'
p5053
I1
tp5054
a(S'basquiat'
p5055
I1
tp5056
a(S'duck'
p5057
I1
tp5058
a(S'communism'
p5059
I1
tp5060
a(S'noir'
p5061
I1
tp5062
a(S'blowin'
p5063
I1
tp5064
a(S'sparks'
p5065
I1
tp5066
a(S'kathie'
p5067
I1
tp5068
a(S'\xc3\x83\xc2\x81ndale'
p5069
I1
tp5070
a(S'avas'
p5071
I1
tp5072
a(S'should'
p5073
I1
tp5074
a(S'advil'
p5075
I1
tp5076
a(S'simmons'
p5077
I1
tp5078
a(S'bitch-ass'
p5079
I1
tp5080
a(S'milian'
p5081
I1
tp5082
a(S'piano'
p5083
I1
tp5084
a(S'driftin'
p5085
I1
tp5086
a(S'dodge'
p5087
I1
tp5088
a(S'courvoisier'
p5089
I1
tp5090
a(S'statham'
p5091
I1
tp5092
a(S'familiar'
p5093
I1
tp5094
a(S'vacumn'
p5095
I1
tp5096
a(S'e-40'
p5097
I1
tp5098
a(S'couric'
p5099
I1
tp5100
a(S'bean'
p5101
I1
tp5102
a(S'october'
p5103
I1
tp5104
a(S'cubs'
p5105
I1
tp5106
a(S'presley'
p5107
I1
tp5108
a(S'sli-mer'
p5109
I1
tp5110
a(S'bronco'
p5111
I1
tp5112
a(S'handgun'
p5113
I1
tp5114
a(S'styrofoam'
p5115
I1
tp5116
a(S'endless'
p5117
I1
tp5118
a(S'macklemore'
p5119
I1
tp5120
a(S'gbe'
p5121
I1
tp5122
a(S'a.c.'
p5123
I1
tp5124
a(S'joanne'
p5125
I1
tp5126
a(S'shy'
p5127
I1
tp5128
a(S'gras'
p5129
I1
tp5130
a(S'reid'
p5131
I1
tp5132
a(S'monop'
p5133
I1
tp5134
a(S'kneel'
p5135
I1
tp5136
a(S'swear'
p5137
I1
tp5138
a(S'ohio'
p5139
I1
tp5140
a(S'ramp'
p5141
I1
tp5142
a(S'nuttin'
p5143
I1
tp5144
a(S'buckwild'
p5145
I1
tp5146
a(S'national'
p5147
I1
tp5148
a(S'pitch'
p5149
I1
tp5150
a(S'rowlands'
p5151
I1
tp5152
a(S'legacy'
p5153
I1
tp5154
a(S'changes'
p5155
I1
tp5156
a(S'racket'
p5157
I1
tp5158
a(S'maries'
p5159
I1
tp5160
a(S'magoo'
p5161
I1
tp5162
a(S'intro/bridge'
p5163
I1
tp5164
a(S'danger'
p5165
I1
tp5166
a(S'excitement'
p5167
I1
tp5168
a(S'destiny'
p5169
I1
tp5170
a(S'closet'
p5171
I1
tp5172
a(S'middle+'
p5173
I1
tp5174
a(S'oooohhh'
p5175
I1
tp5176
a(S'confusion'
p5177
I1
tp5178
a(S'barbeque'
p5179
I1
tp5180
a(S'kel'
p5181
I1
tp5182
a(S'trynna'
p5183
I1
tp5184
a(S'petigrew'
p5185
I1
tp5186
a(S'joy'
p5187
I1
tp5188
a(S'sorrow'
p5189
I1
tp5190
a(S'deliver'
p5191
I1
tp5192
a(S'a.i'
p5193
I1
tp5194
a(S'zeta'
p5195
I1
tp5196
a(S'dmx'
p5197
I1
tp5198
a(S'texan'
p5199
I1
tp5200
a(S'mista'
p5201
I1
tp5202
a(S'poof'
p5203
I1
tp5204
a(S'group'
p5205
I1
tp5206
a(S'precious'
p5207
I1
tp5208
a(S'legit'
p5209
I1
tp5210
a(S'ronda'
p5211
I1
tp5212
a(S'marty'
p5213
I1
tp5214
a(S'bussin'
p5215
I1
tp5216
a(S'doubletree'
p5217
I1
tp5218
a(S'beenie'
p5219
I1
tp5220
a(S'career'
p5221
I1
tp5222
a(S'wnba'
p5223
I1
tp5224
a(S'myoho'
p5225
I1
tp5226
a(S'kosher'
p5227
I1
tp5228
a(S'april'
p5229
I1
tp5230
a(S'illegal'
p5231
I1
tp5232
a(S'rodney'
p5233
I1
tp5234
a(S'jumbotron'
p5235
I1
tp5236
a(S'nicorette'
p5237
I1
tp5238
a(S'rolley'
p5239
I1
tp5240
a(S'ya_'
p5241
I1
tp5242
a(S'ike'
p5243
I1
tp5244
a(S'cm'
p5245
I1
tp5246
a(S'cl'
p5247
I1
tp5248
a(S'cc'
p5249
I1
tp5250
a(S'cg'
p5251
I1
tp5252
a(S'bronson'
p5253
I1
tp5254
a(S'cd'
p5255
I1
tp5256
a(S'kings'
p5257
I1
tp5258
a(S'willy'
p5259
I1
tp5260
a(S'farad'
p5261
I1
tp5262
a(S'cameras'
p5263
I1
tp5264
a(S'foofoo'
p5265
I1
tp5266
a(S'cent'
p5267
I1
tp5268
a(S'giadonno'
p5269
I1
tp5270
a(S'alori'
p5271
I1
tp5272
a(S'treat'
p5273
I1
tp5274
a(S'poet'
p5275
I1
tp5276
a(S'sars'
p5277
I1
tp5278
a(S'bronsonlino'
p5279
I1
tp5280
a(S'kufu'
p5281
I1
tp5282
a(S'louisiana'
p5283
I1
tp5284
a(S'trinity'
p5285
I1
tp5286
a(S'hernandez'
p5287
I1
tp5288
a(S'senses'
p5289
I1
tp5290
a(S'gliss'
p5291
I1
tp5292
a(S'goddess'
p5293
I1
tp5294
a(S'axle'
p5295
I1
tp5296
a(S'bull'
p5297
I1
tp5298
a(S'general'
p5299
I1
tp5300
a(S'ac/dc'
p5301
I1
tp5302
a(S'napoleon'
p5303
I1
tp5304
a(S'self-esteem'
p5305
I1
tp5306
a(S'homer'
p5307
I1
tp5308
a(S'muhammed'
p5309
I1
tp5310
a(S'blackstreet'
p5311
I1
tp5312
a(S'ultramagnetic'
p5313
I1
tp5314
a(S'runway'
p5315
I1
tp5316
a(S'cvs'
p5317
I1
tp5318
a(S'pshh'
p5319
I1
tp5320
a(S'stalin'
p5321
I1
tp5322
a(S'slick-er'
p5323
I1
tp5324
a(S'jumanji'
p5325
I1
tp5326
a(S'usb'
p5327
I1
tp5328
a(S'hahaha'
p5329
I1
tp5330
a(S'maui'
p5331
I1
tp5332
a(S'ultra'
p5333
I1
tp5334
a(S'ill'
p5335
I1
tp5336
a(S'bally\xc3\xa2\xc2\x80\xc2\x99s'
p5337
I1
tp5338
a(S'jehovah'
p5339
I1
tp5340
a(S'motif'
p5341
I1
tp5342
a(S'powells'
p5343
I1
tp5344
a(S'freeman'
p5345
I1
tp5346
a(S'lush'
p5347
I1
tp5348
a(S'readin'
p5349
I1
tp5350
a(S'cocharan'
p5351
I1
tp5352
a(S'edgar'
p5353
I1
tp5354
a(S'partner'
p5355
I1
tp5356
a(S'whorf'
p5357
I1
tp5358
a(S'bukein'
p5359
I1
tp5360
a(S'benjis'
p5361
I1
tp5362
a(S'buddhist'
p5363
I1
tp5364
a(S'cross'
p5365
I1
tp5366
a(S'wantin'
p5367
I1
tp5368
a(S'samson'
p5369
I1
tp5370
a(S'powell'
p5371
I1
tp5372
a(S'difficult'
p5373
I1
tp5374
a(S'marijuanin'
p5375
I1
tp5376
a(S'slave'
p5377
I1
tp5378
a(S'iou'
p5379
I1
tp5380
a(S'phd'
p5381
I1
tp5382
a(S'beast'
p5383
I1
tp5384
a(S'mendal'
p5385
I1
tp5386
a(S'bakery'
p5387
I1
tp5388
a(S'v8'
p5389
I1
tp5390
a(S'middlesex'
p5391
I1
tp5392
a(S'broccoli'
p5393
I1
tp5394
a(S'warming'
p5395
I1
tp5396
a(S'l.b'
p5397
I1
tp5398
a(S"i'ant"
p5399
I1
tp5400
a(S'valerie'
p5401
I1
tp5402
a(S'philo'
p5403
I1
tp5404
a(S'crackhouse'
p5405
I1
tp5406
a(S'colour'
p5407
I1
tp5408
a(S'bran'
p5409
I1
tp5410
a(S'command'
p5411
I1
tp5412
a(S'rashan'
p5413
I1
tp5414
a(S'english'
p5415
I1
tp5416
a(S'ashlee'
p5417
I1
tp5418
a(S'conquer'
p5419
I1
tp5420
a(S'alec'
p5421
I1
tp5422
a(S'grandmama'
p5423
I1
tp5424
a(S'deion'
p5425
I1
tp5426
a(S'tacchini'
p5427
I1
tp5428
a(S'padrinos'
p5429
I1
tp5430
a(S'cabo'
p5431
I1
tp5432
a(S'biggums'
p5433
I1
tp5434
a(S'trust'
p5435
I1
tp5436
a(S'lincolns'
p5437
I1
tp5438
a(S'theophilus'
p5439
I1
tp5440
a(S'\xc3\xa2\xc2\x80\xc2\x9chey'
p5441
I1
tp5442
a(S'hadiya'
p5443
I1
tp5444
a(S'happiness'
p5445
I1
tp5446
a(S'brad'
p5447
I1
tp5448
a(S'meanin'
p5449
I1
tp5450
a(S'rs'
p5451
I1
tp5452
a(S'nicky'
p5453
I1
tp5454
a(S'panther'
p5455
I1
tp5456
a(S'cage'
p5457
I1
tp5458
a(S'hall'
p5459
I1
tp5460
a(S'wes'
p5461
I1
tp5462
a(S'plottin'
p5463
I1
tp5464
a(S'kirko'
p5465
I1
tp5466
a(S'wet'
p5467
I1
tp5468
a(S'tuxes'
p5469
I1
tp5470
a(S'earthquakes'
p5471
I1
tp5472
a(S'i-95'
p5473
I1
tp5474
a(S'magnify'
p5475
I1
tp5476
a(S'escalades'
p5477
I1
tp5478
a(S'midwest'
p5479
I1
tp5480
a(S"'criminal"
p5481
I1
tp5482
a(S'alisha'
p5483
I1
tp5484
a(S'aaa'
p5485
I1
tp5486
a(S'hollow'
p5487
I1
tp5488
a(S'stetson'
p5489
I1
tp5490
a(S'benadryl'
p5491
I1
tp5492
a(S'like'
p5493
I1
tp5494
a(S'heyyyyyy'
p5495
I1
tp5496
a(S'coogie'
p5497
I1
tp5498
a(S'stevenson'
p5499
I1
tp5500
a(S'candy'
p5501
I1
tp5502
a(S'cronkite'
p5503
I1
tp5504
a(S'tennessee'
p5505
I1
tp5506
a(S'cletus'
p5507
I1
tp5508
a(S'lose'
p5509
I1
tp5510
a(S'chick'
p5511
I1
tp5512
a(S'dido'
p5513
I1
tp5514
a(S'amendment'
p5515
I1
tp5516
a(S'ripperton'
p5517
I1
tp5518
a(S'juuuuuuugo'
p5519
I1
tp5520
a(S'scuffle'
p5521
I1
tp5522
a(S'hail'
p5523
I1
tp5524
a(S'homo'
p5525
I1
tp5526
a(S'holler'
p5527
I1
tp5528
a(S'shes'
p5529
I1
tp5530
a(S'cleveland'
p5531
I1
tp5532
a(S'empire'
p5533
I1
tp5534
a(S'shabba'
p5535
I1
tp5536
a(S'jojo'
p5537
I1
tp5538
a(S'graduation'
p5539
I1
tp5540
a(S'wesly'
p5541
I1
tp5542
a(S'jeremy'
p5543
I1
tp5544
a(S'chancelor'
p5545
I1
tp5546
a(S'metoo'
p5547
I1
tp5548
a(S'dunes'
p5549
I1
tp5550
a(S'broad'
p5551
I1
tp5552
a(S'lean'
p5553
I1
tp5554
a(S'screwneck'
p5555
I1
tp5556
a(S'merced-iance'
p5557
I1
tp5558
a(S'leap'
p5559
I1
tp5560
a(S'datin'
p5561
I1
tp5562
a(S'judgment'
p5563
I1
tp5564
a(S'fanny'
p5565
I1
tp5566
a(S'pr'
p5567
I1
tp5568
a(S'coppola'
p5569
I1
tp5570
a(S'l-o-v-e'
p5571
I1
tp5572
a(S'tracey'
p5573
I1
tp5574
a(S'kool-aid'
p5575
I1
tp5576
a(S'peep'
p5577
I1
tp5578
a(S'offset'
p5579
I1
tp5580
a(S'instinct'
p5581
I1
tp5582
a(S'k-man'
p5583
I1
tp5584
a(S'stage'
p5585
I1
tp5586
a(S'beaker'
p5587
I1
tp5588
a(S'pharris'
p5589
I1
tp5590
a(S'beamin'
p5591
I1
tp5592
a(S'sinister'
p5593
I1
tp5594
a(S'kene'
p5595
I1
tp5596
a(S'seeds'
p5597
I1
tp5598
a(S'mercer'
p5599
I1
tp5600
a(S'seedy'
p5601
I1
tp5602
a(S'massachusetts'
p5603
I1
tp5604
a(S'channing'
p5605
I1
tp5606
a(S'khaled'
p5607
I1
tp5608
a(S'maerd'
p5609
I1
tp5610
a(S'chronic'
p5611
I1
tp5612
a(S'dvd'
p5613
I1
tp5614
a(S'promise'
p5615
I1
tp5616
a(S'petron'
p5617
I1
tp5618
a(S'luck'
p5619
I1
tp5620
a(S'havana'
p5621
I1
tp5622
a(S'spiral'
p5623
I1
tp5624
a(S'suzuki'
p5625
I1
tp5626
a(S'cancel'
p5627
I1
tp5628
a(S'danroy'
p5629
I1
tp5630
a(S'basic'
p5631
I1
tp5632
a(S'santas'
p5633
I1
tp5634
a(S'overlapping'
p5635
I1
tp5636
a(S'n/a'
p5637
I1
tp5638
a(S'marge'
p5639
I1
tp5640
a(S'bagger'
p5641
I1
tp5642
a(S'hard-a-way'
p5643
I1
tp5644
a(S'memphis'
p5645
I1
tp5646
a(S'bud'
p5647
I1
tp5648
a(S'neslund'
p5649
I1
tp5650
a(S'wise'
p5651
I1
tp5652
a(S'israelites'
p5653
I1
tp5654
a(S'mariel'
p5655
I1
tp5656
a(S'garbo'
p5657
I1
tp5658
a(S'levis'
p5659
I1
tp5660
a(S'havin'
p5661
I1
tp5662
a(S'dmv'
p5663
I1
tp5664
a(S'sent'
p5665
I1
tp5666
a(S'warhols'
p5667
I1
tp5668
a(S'flyin'
p5669
I1
tp5670
a(S'connies'
p5671
I1
tp5672
a(S'c.r.e.a.m'
p5673
I1
tp5674
a(S'redroom'
p5675
I1
tp5676
a(S'maury'
p5677
I1
tp5678
a(S'penny'
p5679
I1
tp5680
a(S'iverson'
p5681
I1
tp5682
a(S'twist'
p5683
I1
tp5684
a(S'romance'
p5685
I1
tp5686
a(S'conan'
p5687
I1
tp5688
a(S'ini'
p5689
I1
tp5690
a(S'could\xc3\xa2\xc2\x80\xc2\x99ve'
p5691
I1
tp5692
a(S'pit'
p5693
I1
tp5694
a(S"o'malley"
p5695
I1
tp5696
a(S'relatin'
p5697
I1
tp5698
a(S'diggs'
p5699
I1
tp5700
a(S'oak'
p5701
I1
tp5702
a(S'saviour'
p5703
I1
tp5704
a(S'sprayin'
p5705
I1
tp5706
a(S'malachi'
p5707
I1
tp5708
a(S'booker'
p5709
I1
tp5710
a(S'grutman'
p5711
I1
tp5712
a(S'pinkett'
p5713
I1
tp5714
a(S'album'
p5715
I1
tp5716
a(S'madelline'
p5717
I1
tp5718
a(S'marlboro'
p5719
I1
tp5720
a(S'ayatoll'
p5721
I1
tp5722
a(S'sure'
p5723
I1
tp5724
a(S'eatrh'
p5725
I1
tp5726
a(S'johnston'
p5727
I1
tp5728
a(S'miele'
p5729
I1
tp5730
a(S'mcqueen'
p5731
I1
tp5732
a(S'sphinx'
p5733
I1
tp5734
a(S'samsung'
p5735
I1
tp5736
a(S'ta'
p5737
I1
tp5738
a(S'jewel'
p5739
I1
tp5740
a(S'chathams'
p5741
I1
tp5742
a(S'soullllllllll'
p5743
I1
tp5744
a(S'i.i.t'
p5745
I1
tp5746
a(S'stayed'
p5747
I1
tp5748
a(S'auckdale'
p5749
I1
tp5750
a(S'simpson'
p5751
I1
tp5752
a(S'hmmm..'
p5753
I1
tp5754
a(S'hate'
p5755
I2
tp5756
a(S'swae'
p5757
I2
tp5758
a(S'sanford'
p5759
I2
tp5760
a(S'regal'
p5761
I2
tp5762
a(S'aurora'
p5763
I2
tp5764
a(S'poppa'
p5765
I2
tp5766
a(S'talib'
p5767
I2
tp5768
a(S'cher'
p5769
I2
tp5770
a(S'chef'
p5771
I2
tp5772
a(S'sinista'
p5773
I2
tp5774
a(S'boogie'
p5775
I2
tp5776
a(S'ghandi'
p5777
I2
tp5778
a(S'feelin\xc3\xa2\xc2\x80\xc2\x99'
p5779
I2
tp5780
a(S'groupie'
p5781
I2
tp5782
a(S'disney'
p5783
I2
tp5784
a(S'vroof'
p5785
I2
tp5786
a(S'swag'
p5787
I2
tp5788
a(S'drew'
p5789
I2
tp5790
a(S'met'
p5791
I2
tp5792
a(S'kids'
p5793
I2
tp5794
a(S'dru'
p5795
I2
tp5796
a(S'robin'
p5797
I2
tp5798
a(S'credit'
p5799
I2
tp5800
a(S'omar'
p5801
I2
tp5802
a(S'aka'
p5803
I2
tp5804
a(S'fell'
p5805
I2
tp5806
a(S'ork'
p5807
I2
tp5808
a(S'latifah'
p5809
I2
tp5810
a(S'bro'
p5811
I2
tp5812
a(S'geico'
p5813
I2
tp5814
a(S'ebony'
p5815
I2
tp5816
a(S'mekhi'
p5817
I2
tp5818
a(S'hola'
p5819
I2
tp5820
a(S'mi'
p5821
I2
tp5822
a(S'roof'
p5823
I2
tp5824
a(S'tna'
p5825
I2
tp5826
a(S'wang'
p5827
I2
tp5828
a(S'dyke'
p5829
I2
tp5830
a(S'chase'
p5831
I2
tp5832
a(S'becky'
p5833
I2
tp5834
a(S'mufasa'
p5835
I2
tp5836
a(S'baton'
p5837
I2
tp5838
a(S'third'
p5839
I2
tp5840
a(S'bee'
p5841
I2
tp5842
a(S'green'
p5843
I2
tp5844
a(S'order'
p5845
I2
tp5846
a(S'chazz'
p5847
I2
tp5848
a(S'ramadan'
p5849
I2
tp5850
a(S'panthers'
p5851
I2
tp5852
a(S'fit'
p5853
I2
tp5854
a(S'gluttony'
p5855
I2
tp5856
a(S'rocky'
p5857
I2
tp5858
a(S'sanyo'
p5859
I2
tp5860
a(S'sung'
p5861
I2
tp5862
a(S'january'
p5863
I2
tp5864
a(S'dawg'
p5865
I2
tp5866
a(S'smoko'
p5867
I2
tp5868
a(S'baseline'
p5869
I2
tp5870
a(S'saturday'
p5871
I2
tp5872
a(S'murcielago'
p5873
I2
tp5874
a(S'fought'
p5875
I2
tp5876
a(S'hannibal'
p5877
I2
tp5878
a(S'loud'
p5879
I2
tp5880
a(S'chopped'
p5881
I2
tp5882
a(S'choke'
p5883
I2
tp5884
a(S'dogg'
p5885
I2
tp5886
a(S'neck'
p5887
I2
tp5888
a(S'rockie'
p5889
I2
tp5890
a(S'albert'
p5891
I2
tp5892
a(S'romey'
p5893
I2
tp5894
a(S'solomon'
p5895
I2
tp5896
a(S'kinte'
p5897
I2
tp5898
a(S'rah'
p5899
I2
tp5900
a(S'hug'
p5901
I2
tp5902
a(S'derek'
p5903
I2
tp5904
a(S'plenty'
p5905
I2
tp5906
a(S'alabama'
p5907
I2
tp5908
a(S'thriller'
p5909
I2
tp5910
a(S'dummy'
p5911
I2
tp5912
a(S'ros\xc3\x83\xc2\xa9'
p5913
I2
tp5914
a(S'lewis'
p5915
I2
tp5916
a(S'gabe'
p5917
I2
tp5918
a(S'pops'
p5919
I2
tp5920
a(S'dc'
p5921
I2
tp5922
a(S'coast'
p5923
I2
tp5924
a(S'illmatic'
p5925
I2
tp5926
a(S'goulding'
p5927
I2
tp5928
a(S'dr'
p5929
I2
tp5930
a(S'playstation'
p5931
I2
tp5932
a(S'nut'
p5933
I2
tp5934
a(S'nuh'
p5935
I2
tp5936
a(S'deebo'
p5937
I2
tp5938
a(S'peta'
p5939
I2
tp5940
a(S'sorta'
p5941
I2
tp5942
a(S'knight'
p5943
I2
tp5944
a(S'hublot'
p5945
I2
tp5946
a(S'boss'
p5947
I2
tp5948
a(S'aaliyah'
p5949
I2
tp5950
a(S'wu'
p5951
I2
tp5952
a(S'numpsay'
p5953
I2
tp5954
a(S'sayitainttone'
p5955
I2
tp5956
a(S'surfer'
p5957
I2
tp5958
a(S'protect'
p5959
I2
tp5960
a(S'prudential'
p5961
I2
tp5962
a(S'chappelle'
p5963
I2
tp5964
a(S'wha'
p5965
I2
tp5966
a(S'discussin'
p5967
I2
tp5968
a(S'seein'
p5969
I2
tp5970
a(S'exalt'
p5971
I2
tp5972
a(S'oooooh'
p5973
I2
tp5974
a(S'tink'
p5975
I2
tp5976
a(S'walter'
p5977
I2
tp5978
a(S'spit'
p5979
I2
tp5980
a(S'sunshine'
p5981
I2
tp5982
a(S'child'
p5983
I2
tp5984
a(S'seany'
p5985
I2
tp5986
a(S'aiy'
p5987
I2
tp5988
a(S'majik'
p5989
I2
tp5990
a(S'hebrew'
p5991
I2
tp5992
a(S'ig'
p5993
I2
tp5994
a(S'jerry'
p5995
I2
tp5996
a(S'puttin'
p5997
I2
tp5998
a(S'kix'
p5999
I2
tp6000
a(S'saddam'
p6001
I2
tp6002
a(S'sacramento'
p6003
I2
tp6004
a(S'kept'
p6005
I2
tp6006
a(S'reese'
p6007
I2
tp6008
a(S'gods'
p6009
I2
tp6010
a(S'nuvo'
p6011
I2
tp6012
a(S'picasso'
p6013
I2
tp6014
a(S'yep'
p6015
I2
tp6016
a(S'jose'
p6017
I2
tp6018
a(S'polos'
p6019
I2
tp6020
a(S'han'
p6021
I2
tp6022
a(S'sinatra'
p6023
I2
tp6024
a(S'woodlawn'
p6025
I2
tp6026
a(S'ooooh'
p6027
I2
tp6028
a(S'prison'
p6029
I2
tp6030
a(S'maya'
p6031
I2
tp6032
a(S'tweakin'
p6033
I2
tp6034
a(S'brought'
p6035
I2
tp6036
a(S'awesome'
p6037
I2
tp6038
a(S'crowd'
p6039
I2
tp6040
a(S'people'
p6041
I2
tp6042
a(S'somehow'
p6043
I2
tp6044
a(S'jennifer'
p6045
I2
tp6046
a(S'dear'
p6047
I2
tp6048
a(S'dolce'
p6049
I2
tp6050
a(S'bury'
p6051
I2
tp6052
a(S'ferraris'
p6053
I2
tp6054
a(S'dinner'
p6055
I2
tp6056
a(S'visa'
p6057
I2
tp6058
a(S'slim'
p6059
I2
tp6060
a(S'halle'
p6061
I2
tp6062
a(S'jealousy'
p6063
I2
tp6064
a(S'virgil'
p6065
I2
tp6066
a(S'kiki'
p6067
I2
tp6068
a(S'rih'
p6069
I2
tp6070
a(S'layin'
p6071
I2
tp6072
a(S'u-haul'
p6073
I2
tp6074
a(S'actor'
p6075
I2
tp6076
a(S'digital'
p6077
I2
tp6078
a(S'klondike'
p6079
I2
tp6080
a(S'eiffel'
p6081
I2
tp6082
a(S'skeeter'
p6083
I2
tp6084
a(S'shyne'
p6085
I2
tp6086
a(S'push'
p6087
I2
tp6088
a(S'beamer'
p6089
I2
tp6090
a(S'snl'
p6091
I2
tp6092
a(S'mill'
p6093
I2
tp6094
a(S'row'
p6095
I2
tp6096
a(S'j.j.'
p6097
I2
tp6098
a(S'flash'
p6099
I2
tp6100
a(S'gabana'
p6101
I2
tp6102
a(S'foley'
p6103
I2
tp6104
a(S'rocka'
p6105
I2
tp6106
a(S'lynch'
p6107
I2
tp6108
a(S'dig'
p6109
I2
tp6110
a(S'guy'
p6111
I2
tp6112
a(S'round'
p6113
I2
tp6114
a(S'revolution'
p6115
I2
tp6116
a(S'square'
p6117
I2
tp6118
a(S'sign'
p6119
I2
tp6120
a(S'hazzard'
p6121
I2
tp6122
a(S'elton'
p6123
I2
tp6124
a(S'barbie'
p6125
I2
tp6126
a(S'lennon'
p6127
I2
tp6128
a(S'international'
p6129
I2
tp6130
a(S'freaky'
p6131
I2
tp6132
a(S'muslim'
p6133
I2
tp6134
a(S'french'
p6135
I2
tp6136
a(S'witch'
p6137
I2
tp6138
a(S'givin'
p6139
I2
tp6140
a(S'beautiful'
p6141
I2
tp6142
a(S'post'
p6143
I2
tp6144
a(S'bender'
p6145
I2
tp6146
a(S'yeezys'
p6147
I2
tp6148
a(S'downtown'
p6149
I2
tp6150
a(S'caw'
p6151
I2
tp6152
a(S'cat'
p6153
I2
tp6154
a(S'dennis'
p6155
I2
tp6156
a(S'rollin\xc3\xa2\xc2\x80\xc2\x99'
p6157
I2
tp6158
a(S'pure'
p6159
I2
tp6160
a(S'beans'
p6161
I2
tp6162
a(S'starin'
p6163
I2
tp6164
a(S'suck'
p6165
I2
tp6166
a(S'johnson'
p6167
I2
tp6168
a(S'smellin'
p6169
I2
tp6170
a(S'\xc3\xa2\xc2\x80\xc2\x98til'
p6171
I2
tp6172
a(S'teddy'
p6173
I2
tp6174
a(S'shakin'
p6175
I2
tp6176
a(S'bein'
p6177
I2
tp6178
a(S'rake'
p6179
I2
tp6180
a(S'not'
p6181
I2
tp6182
a(S'sweetheart'
p6183
I2
tp6184
a(S'revere'
p6185
I2
tp6186
a(S'em'
p6187
I2
tp6188
a(S'fallin'
p6189
I2
tp6190
a(S'ey'
p6191
I2
tp6192
a(S'homme'
p6193
I2
tp6194
a(S'space'
p6195
I2
tp6196
a(S'gran'
p6197
I2
tp6198
a(S'quran'
p6199
I2
tp6200
a(S'disrespect'
p6201
I2
tp6202
a(S'keith'
p6203
I2
tp6204
a(S'card'
p6205
I2
tp6206
a(S'coulda'
p6207
I2
tp6208
a(S'place'
p6209
I2
tp6210
a(S'gordon'
p6211
I2
tp6212
a(S'cheese'
p6213
I2
tp6214
a(S'bling'
p6215
I2
tp6216
a(S'maybachs'
p6217
I2
tp6218
a(S'chi-city'
p6219
I2
tp6220
a(S'eyes'
p6221
I2
tp6222
a(S'that'
p6223
I2
tp6224
a(S'x9'
p6225
I2
tp6226
a(S'butt'
p6227
I2
tp6228
a(S'wide'
p6229
I2
tp6230
a(S'future'
p6231
I2
tp6232
a(S'bauer'
p6233
I2
tp6234
a(S'killin\xc3\xa2\xc2\x80\xc2\x99'
p6235
I2
tp6236
a(S'angel'
p6237
I2
tp6238
a(S'ann'
p6239
I2
tp6240
a(S'premier'
p6241
I2
tp6242
a(S'sad'
p6243
I2
tp6244
a(S'kevin'
p6245
I2
tp6246
a(S'kush'
p6247
I2
tp6248
a(S'burnin'
p6249
I2
tp6250
a(S'butterfly'
p6251
I2
tp6252
a(S'paid'
p6253
I2
tp6254
a(S'lonnie'
p6255
I2
tp6256
a(S'cuban'
p6257
I2
tp6258
a(S'koran'
p6259
I2
tp6260
a(S'prynce'
p6261
I2
tp6262
a(S'slow'
p6263
I2
tp6264
a(S'short'
p6265
I2
tp6266
a(S'otis'
p6267
I2
tp6268
a(S'fanta'
p6269
I2
tp6270
a(S'caroline'
p6271
I2
tp6272
a(S'carolina'
p6273
I2
tp6274
a(S'beatles'
p6275
I2
tp6276
a(S'murray'
p6277
I2
tp6278
a(S'nobu'
p6279
I2
tp6280
a(S'where'
p6281
I2
tp6282
a(S'coogi'
p6283
I2
tp6284
a(S'between'
p6285
I2
tp6286
a(S'campaign'
p6287
I2
tp6288
a(S'jo'
p6289
I2
tp6290
a(S'jj'
p6291
I2
tp6292
a(S'ja'
p6293
I2
tp6294
a(S'djs'
p6295
I2
tp6296
a(S'jericho'
p6297
I2
tp6298
a(S'polk'
p6299
I2
tp6300
a(S'coupe'
p6301
I2
tp6302
a(S'barrett'
p6303
I2
tp6304
a(S'odyssey'
p6305
I2
tp6306
a(S'arnold'
p6307
I2
tp6308
a(S'you\xc3\xa2\xc2\x80\xc2\x99ll'
p6309
I2
tp6310
a(S'cock'
p6311
I2
tp6312
a(S'lasandra'
p6313
I2
tp6314
a(S'express'
p6315
I2
tp6316
a(S'pinky'
p6317
I2
tp6318
a(S'blak'
p6319
I2
tp6320
a(S'bron'
p6321
I2
tp6322
a(S'famo'
p6323
I2
tp6324
a(S'worry'
p6325
I2
tp6326
a(S'different'
p6327
I2
tp6328
a(S'pat'
p6329
I2
tp6330
a(S'hallel\xc3\xa2\xc2\x80\xc2\x94'
p6331
I2
tp6332
a(S'damon'
p6333
I2
tp6334
a(S'isle'
p6335
I2
tp6336
a(S'jeffrey'
p6337
I2
tp6338
a(S'ness'
p6339
I2
tp6340
a(S'fruit'
p6341
I2
tp6342
a(S'bottle'
p6343
I2
tp6344
a(S'tito'
p6345
I2
tp6346
a(S'wifey'
p6347
I2
tp6348
a(S'baldwin'
p6349
I2
tp6350
a(S'blow'
p6351
I2
tp6352
a(S'death'
p6353
I2
tp6354
a(S'jake'
p6355
I2
tp6356
a(S'phelps'
p6357
I2
tp6358
a(S'read'
p6359
I2
tp6360
a(S'virginia'
p6361
I2
tp6362
a(S'early'
p6363
I2
tp6364
a(S'hillman'
p6365
I2
tp6366
a(S'whatchu'
p6367
I2
tp6368
a(S'adams'
p6369
I2
tp6370
a(S'heyyy'
p6371
I2
tp6372
a(S'pereira'
p6373
I2
tp6374
a(S'dolo'
p6375
I2
tp6376
a(S'doll'
p6377
I2
tp6378
a(S'lobster'
p6379
I2
tp6380
a(S'introducin'
p6381
I2
tp6382
a(S'ellie'
p6383
I2
tp6384
a(S'abercrombie'
p6385
I2
tp6386
a(S'willie'
p6387
I2
tp6388
a(S'metropolis'
p6389
I2
tp6390
a(S'chop'
p6391
I2
tp6392
a(S'cartier'
p6393
I2
tp6394
a(S'threesome'
p6395
I2
tp6396
a(S'embracin'
p6397
I2
tp6398
a(S'tribe'
p6399
I2
tp6400
a(S'mensah'
p6401
I2
tp6402
a(S'einstein'
p6403
I2
tp6404
a(S'wade'
p6405
I2
tp6406
a(S'hef'
p6407
I2
tp6408
a(S'morrison'
p6409
I2
tp6410
a(S'coolin'
p6411
I2
tp6412
a(S'catchin'
p6413
I2
tp6414
a(S'freddy'
p6415
I2
tp6416
a(S'ac'
p6417
I2
tp6418
a(S'walks'
p6419
I2
tp6420
a(S'babylon'
p6421
I2
tp6422
a(S'keepin'
p6423
I2
tp6424
a(S'brandy'
p6425
I2
tp6426
a(S'diablo'
p6427
I2
tp6428
a(S'cpd'
p6429
I2
tp6430
a(S'cpr'
p6431
I2
tp6432
a(S'roy'
p6433
I2
tp6434
a(S'forget'
p6435
I2
tp6436
a(S'dollar'
p6437
I2
tp6438
a(S'children'
p6439
I2
tp6440
a(S'chain'
p6441
I2
tp6442
a(S'hablo'
p6443
I2
tp6444
a(S'aaron'
p6445
I2
tp6446
a(S'ghana'
p6447
I2
tp6448
a(S'sound'
p6449
I2
tp6450
a(S'skit'
p6451
I2
tp6452
a(S't.'
p6453
I2
tp6454
a(S'saudi'
p6455
I2
tp6456
a(S'harry'
p6457
I2
tp6458
a(S'reebok'
p6459
I2
tp6460
a(S'dope'
p6461
I2
tp6462
a(S'rhymes'
p6463
I2
tp6464
a(S'psycho'
p6465
I2
tp6466
a(S'cody'
p6467
I2
tp6468
a(S'nanu'
p6469
I2
tp6470
a(S'u.s.'
p6471
I2
tp6472
a(S'wu-tang'
p6473
I2
tp6474
a(S'full'
p6475
I2
tp6476
a(S'sprewells'
p6477
I2
tp6478
a(S'wild'
p6479
I2
tp6480
a(S'november'
p6481
I2
tp6482
a(S'redding'
p6483
I2
tp6484
a(S'pendergrass'
p6485
I2
tp6486
a(S'action'
p6487
I2
tp6488
a(S'levine'
p6489
I2
tp6490
a(S'mulholland'
p6491
I2
tp6492
a(S'showin'
p6493
I2
tp6494
a(S'kick'
p6495
I2
tp6496
a(S'blaow'
p6497
I2
tp6498
a(S'jr.'
p6499
I2
tp6500
a(S'askin'
p6501
I2
tp6502
a(S'del'
p6503
I2
tp6504
a(S'den'
p6505
I2
tp6506
a(S'coltrane'
p6507
I2
tp6508
a(S'mutha'
p6509
I2
tp6510
a(S'robinson'
p6511
I2
tp6512
a(S'twenty88'
p6513
I2
tp6514
a(S'buenos'
p6515
I2
tp6516
a(S'survivor'
p6517
I2
tp6518
a(S'kitty'
p6519
I2
tp6520
a(S'cancun'
p6521
I2
tp6522
a(S'sneak'
p6523
I2
tp6524
a(S'freestyle'
p6525
I2
tp6526
a(S'givenchy'
p6527
I2
tp6528
a(S'brady'
p6529
I2
tp6530
a(S'shady'
p6531
I2
tp6532
a(S'stash'
p6533
I2
tp6534
a(S'wayans'
p6535
I2
tp6536
a(S'paper'
p6537
I2
tp6538
a(S'islam'
p6539
I2
tp6540
a(S'late'
p6541
I2
tp6542
a(S'atheneum'
p6543
I2
tp6544
a(S'always'
p6545
I2
tp6546
a(S'found'
p6547
I2
tp6548
a(S'oh-oooh-oh'
p6549
I2
tp6550
a(S'haile'
p6551
I2
tp6552
a(S'raymond'
p6553
I2
tp6554
a(S'garvey'
p6555
I2
tp6556
a(S'bubba'
p6557
I2
tp6558
a(S'taught'
p6559
I2
tp6560
a(S'put'
p6561
I2
tp6562
a(S'e.i'
p6563
I2
tp6564
a(S'feed'
p6565
I2
tp6566
a(S'fancy'
p6567
I2
tp6568
a(S'bland'
p6569
I2
tp6570
a(S'airs'
p6571
I2
tp6572
a(S'saint'
p6573
I2
tp6574
a(S'master'
p6575
I2
tp6576
a(S'hotel'
p6577
I2
tp6578
a(S'ashley'
p6579
I2
tp6580
a(S'grew'
p6581
I2
tp6582
a(S'autumn'
p6583
I2
tp6584
a(S'papi'
p6585
I2
tp6586
a(S'sell'
p6587
I2
tp6588
a(S'patterson'
p6589
I2
tp6590
a(S'quavo'
p6591
I2
tp6592
a(S'choos'
p6593
I2
tp6594
a(S'moss'
p6595
I2
tp6596
a(S'sandra'
p6597
I2
tp6598
a(S'alpha'
p6599
I2
tp6600
a(S'eskimo'
p6601
I2
tp6602
a(S'bustin'
p6603
I2
tp6604
a(S'clean'
p6605
I2
tp6606
a(S'v12'
p6607
I2
tp6608
a(S'grandmas'
p6609
I2
tp6610
a(S'naomi'
p6611
I2
tp6612
a(S'original'
p6613
I2
tp6614
a(S'bueller'
p6615
I2
tp6616
a(S'banner'
p6617
I2
tp6618
a(S'dealin'
p6619
I2
tp6620
a(S'cry'
p6621
I2
tp6622
a(S'kembe'
p6623
I2
tp6624
a(S'byron'
p6625
I2
tp6626
a(S'movin'
p6627
I2
tp6628
a(S'movie'
p6629
I2
tp6630
a(S'wow'
p6631
I2
tp6632
a(S'alamae'
p6633
I2
tp6634
a(S'korea'
p6635
I2
tp6636
a(S'po'
p6637
I2
tp6638
a(S'pepsi'
p6639
I2
tp6640
a(S'water'
p6641
I2
tp6642
a(S'tootie'
p6643
I2
tp6644
a(S'naw'
p6645
I2
tp6646
a(S'messiah'
p6647
I2
tp6648
a(S'sammy'
p6649
I2
tp6650
a(S'ran'
p6651
I2
tp6652
a(S'change'
p6653
I2
tp6654
a(S'box'
p6655
I2
tp6656
a(S'kunta'
p6657
I2
tp6658
a(S'buck'
p6659
I2
tp6660
a(S'whitney'
p6661
I2
tp6662
a(S'smile'
p6663
I2
tp6664
a(S'mitchell'
p6665
I2
tp6666
a(S'vroom'
p6667
I2
tp6668
a(S'styles'
p6669
I2
tp6670
a(S'gangstas'
p6671
I2
tp6672
a(S'rio'
p6673
I2
tp6674
a(S'screamin'
p6675
I2
tp6676
a(S'rid'
p6677
I2
tp6678
a(S'ric'
p6679
I2
tp6680
a(S'audi'
p6681
I2
tp6682
a(S'grant'
p6683
I2
tp6684
a(S'eatin'
p6685
I2
tp6686
a(S'appolonia'
p6687
I2
tp6688
a(S'medusa'
p6689
I2
tp6690
a(S'cinnamon'
p6691
I2
tp6692
a(S'barney'
p6693
I2
tp6694
a(S'dart'
p6695
I2
tp6696
a(S'stephanie'
p6697
I2
tp6698
a(S'strobe'
p6699
I2
tp6700
a(S'rosie'
p6701
I2
tp6702
a(S'mob'
p6703
I2
tp6704
a(S'uzi'
p6705
I2
tp6706
a(S'dare'
p6707
I2
tp6708
a(S'cum'
p6709
I2
tp6710
a(S'quest'
p6711
I2
tp6712
a(S'kash'
p6713
I2
tp6714
a(S'bit'
p6715
I2
tp6716
a(S'allllllll'
p6717
I2
tp6718
a(S'arthur'
p6719
I2
tp6720
a(S'goddamn'
p6721
I2
tp6722
a(S'mmmmm'
p6723
I2
tp6724
a(S'jewelry'
p6725
I2
tp6726
a(S'anna'
p6727
I2
tp6728
a(S'ba'
p6729
I2
tp6730
a(S'juju'
p6731
I2
tp6732
a(S'cochran'
p6733
I2
tp6734
a(S'giuseppe'
p6735
I2
tp6736
a(S'che'
p6737
I2
tp6738
a(S'searchin'
p6739
I2
tp6740
a(S'drama'
p6741
I2
tp6742
a(S'plan'
p6743
I2
tp6744
a(S'mills'
p6745
I2
tp6746
a(S'steven'
p6747
I2
tp6748
a(S'goyard'
p6749
I2
tp6750
a(S'rolls'
p6751
I2
tp6752
a(S'stylin'
p6753
I2
tp6754
a(S'moulin'
p6755
I2
tp6756
a(S'mccartney'
p6757
I2
tp6758
a(S'scared'
p6759
I2
tp6760
a(S'pimpin'
p6761
I2
tp6762
a(S'atlantic'
p6763
I2
tp6764
a(S'kanyes'
p6765
I2
tp6766
a(S'cia'
p6767
I2
tp6768
a(S'blige'
p6769
I2
tp6770
a(S'oscars'
p6771
I2
tp6772
a(S'graham'
p6773
I2
tp6774
a(S'rainbow'
p6775
I2
tp6776
a(S'realest'
p6777
I2
tp6778
a(S'danny'
p6779
I2
tp6780
a(S'fendi'
p6781
I2
tp6782
a(S'leno'
p6783
I2
tp6784
a(S'william'
p6785
I2
tp6786
a(S'hair'
p6787
I2
tp6788
a(S'stressin'
p6789
I2
tp6790
a(S'age'
p6791
I2
tp6792
a(S'karma'
p6793
I2
tp6794
a(S'gs'
p6795
I2
tp6796
a(S'kross'
p6797
I2
tp6798
a(S'gp'
p6799
I2
tp6800
a(S'jukin'
p6801
I2
tp6802
a(S'bacardi'
p6803
I2
tp6804
a(S'kate'
p6805
I2
tp6806
a(S'junie'
p6807
I2
tp6808
a(S'send'
p6809
I2
tp6810
a(S"i'da"
p6811
I2
tp6812
a(S'rhyme'
p6813
I2
tp6814
a(S'g.'
p6815
I2
tp6816
a(S'wearin'
p6817
I2
tp6818
a(S'eve'
p6819
I2
tp6820
a(S'try'
p6821
I2
tp6822
a(S'barbara'
p6823
I2
tp6824
a(S'bernie'
p6825
I2
tp6826
a(S'jump'
p6827
I2
tp6828
a(S'nick'
p6829
I2
tp6830
a(S'ahhhhh'
p6831
I2
tp6832
a(S'lex'
p6833
I2
tp6834
a(S'wesley'
p6835
I2
tp6836
a(S'titanic'
p6837
I2
tp6838
a(S'sayin'
p6839
I2
tp6840
a(S'egypt'
p6841
I2
tp6842
a(S'hardy'
p6843
I2
tp6844
a(S'wit'
p6845
I2
tp6846
a(S'singing'
p6847
I2
tp6848
a(S'from'
p6849
I2
tp6850
a(S'snoop'
p6851
I2
tp6852
a(S'butler'
p6853
I2
tp6854
a(S'givens'
p6855
I2
tp6856
a(S'kyd'
p6857
I2
tp6858
a(S'starter'
p6859
I2
tp6860
a(S'women'
p6861
I2
tp6862
a(S'krs'
p6863
I2
tp6864
a(S'meet'
p6865
I2
tp6866
a(S'saba'
p6867
I2
tp6868
a(S'patron'
p6869
I2
tp6870
a(S'blaine'
p6871
I2
tp6872
a(S'choo'
p6873
I2
tp6874
a(S'gci'
p6875
I2
tp6876
a(S'chevrolet'
p6877
I2
tp6878
a(S'anakin'
p6879
I2
tp6880
a(S'sia'
p6881
I2
tp6882
a(S'izzo'
p6883
I2
tp6884
a(S'ronald'
p6885
I2
tp6886
a(S'nazar\xc3\x83\xc2\xa9'
p6887
I2
tp6888
a(S'aniston'
p6889
I2
tp6890
a(S'ibiza'
p6891
I2
tp6892
a(S'mark'
p6893
I2
tp6894
a(S'adderall'
p6895
I2
tp6896
a(S'raekwon'
p6897
I2
tp6898
a(S'reach'
p6899
I2
tp6900
a(S'bridget'
p6901
I2
tp6902
a(S'dancin'
p6903
I2
tp6904
a(S'ds'
p6905
I2
tp6906
a(S'choose'
p6907
I2
tp6908
a(S'lp'
p6909
I2
tp6910
a(S'puerto'
p6911
I2
tp6912
a(S'bye'
p6913
I2
tp6914
a(S'camino'
p6915
I2
tp6916
a(S'dat'
p6917
I2
tp6918
a(S'february'
p6919
I2
tp6920
a(S'rolly'
p6921
I2
tp6922
a(S'michaels'
p6923
I2
tp6924
a(S'flair'
p6925
I2
tp6926
a(S'drizzy'
p6927
I2
tp6928
a(S'strip'
p6929
I2
tp6930
a(S'out'
p6931
I2
tp6932
a(S'rey'
p6933
I2
tp6934
a(S'ricki'
p6935
I2
tp6936
a(S'florida'
p6937
I2
tp6938
a(S'whoop'
p6939
I2
tp6940
a(S'blows'
p6941
I2
tp6942
a(S'monkey'
p6943
I2
tp6944
a(S'start'
p6945
I2
tp6946
a(S'dreezy'
p6947
I2
tp6948
a(S'bey'
p6949
I2
tp6950
a(S'emmett'
p6951
I2
tp6952
a(S'broadway'
p6953
I2
tp6954
a(S'eryn'
p6955
I2
tp6956
a(S'microphone'
p6957
I2
tp6958
a(S'mic'
p6959
I2
tp6960
a(S'linda'
p6961
I2
tp6962
a(S'manor'
p6963
I2
tp6964
a(S'parker'
p6965
I2
tp6966
a(S'b-i'
p6967
I2
tp6968
a(S'chicken'
p6969
I2
tp6970
a(S'rash'
p6971
I2
tp6972
a(S'jag'
p6973
I2
tp6974
a(S'cube'
p6975
I2
tp6976
a(S'mgm'
p6977
I2
tp6978
a(S'abby'
p6979
I2
tp6980
a(S'mercedez'
p6981
I2
tp6982
a(S'ripley'
p6983
I2
tp6984
a(S'india.arie'
p6985
I2
tp6986
a(S'ebt'
p6987
I2
tp6988
a(S'timbs'
p6989
I2
tp6990
a(S'lyor'
p6991
I2
tp6992
a(S'janet'
p6993
I2
tp6994
a(S'merry'
p6995
I2
tp6996
a(S'joke'
p6997
I2
tp6998
a(S'chopra'
p6999
I2
tp7000
a(S'drug'
p7001
I2
tp7002
a(S'hennesey'
p7003
I2
tp7004
a(S'wale'
p7005
I2
tp7006
a(S'fake-ass'
p7007
I2
tp7008
a(S'walt'
p7009
I2
tp7010
a(S'mafia'
p7011
I2
tp7012
a(S'ct'
p7013
I2
tp7014
a(S'yay'
p7015
I2
tp7016
a(S'bbc'
p7017
I2
tp7018
a(S'yap'
p7019
I2
tp7020
a(S'arabs'
p7021
I2
tp7022
a(S'vince'
p7023
I2
tp7024
a(S'pie'
p7025
I2
tp7026
a(S'tsu'
p7027
I2
tp7028
a(S'tribeca'
p7029
I2
tp7030
a(S'va'
p7031
I2
tp7032
a(S'evelyn'
p7033
I2
tp7034
a(S'simone'
p7035
I2
tp7036
a(S'tupac'
p7037
I2
tp7038
a(S'juan'
p7039
I2
tp7040
a(S'foxy'
p7041
I2
tp7042
a(S'underground'
p7043
I2
tp7044
a(S'yooo'
p7045
I2
tp7046
a(S'nation'
p7047
I2
tp7048
a(S'rockstar'
p7049
I2
tp7050
a(S'schh'
p7051
I2
tp7052
a(S'less'
p7053
I2
tp7054
a(S'wheatstraw'
p7055
I2
tp7056
a(S'chancellor'
p7057
I2
tp7058
a(S'urkel'
p7059
I2
tp7060
a(S'dubai'
p7061
I2
tp7062
a(S'mhm'
p7063
I2
tp7064
a(S'armani'
p7065
I2
tp7066
a(S'chozen'
p7067
I2
tp7068
a(S'tmz'
p7069
I2
tp7070
a(S'pepper'
p7071
I2
tp7072
a(S'mitt'
p7073
I2
tp7074
a(S'x10'
p7075
I2
tp7076
a(S'ripper'
p7077
I2
tp7078
a(S'a1'
p7079
I2
tp7080
a(S'tomb'
p7081
I2
tp7082
a(S'shoppin'
p7083
I2
tp7084
a(S'screamed'
p7085
I2
tp7086
a(S'guard'
p7087
I2
tp7088
a(S'buick'
p7089
I2
tp7090
a(S'oww'
p7091
I2
tp7092
a(S'bombay'
p7093
I2
tp7094
a(S'monie'
p7095
I2
tp7096
a(S'van'
p7097
I2
tp7098
a(S'i.ds'
p7099
I2
tp7100
a(S'cinderella'
p7101
I2
tp7102
a(S'imperial'
p7103
I2
tp7104
a(S'bump'
p7105
I2
tp7106
a(S'ed'
p7107
I2
tp7108
a(S'nikes'
p7109
I2
tp7110
a(S'ghost'
p7111
I2
tp7112
a(S'granny'
p7113
I2
tp7114
a(S'lynn'
p7115
I2
tp7116
a(S'dee-da-da-da-doo-doo'
p7117
I2
tp7118
a(S'dmc'
p7119
I2
tp7120
a(S'cells'
p7121
I2
tp7122
a(S'flip'
p7123
I2
tp7124
a(S'volvo'
p7125
I2
tp7126
a(S'record'
p7127
I2
tp7128
a(S'unamerican'
p7129
I2
tp7130
a(S'supreme'
p7131
I2
tp7132
a(S'romney'
p7133
I2
tp7134
a(S'beats'
p7135
I2
tp7136
a(S'inf'
p7137
I2
tp7138
a(S'jethro'
p7139
I2
tp7140
a(S'pre-hook'
p7141
I2
tp7142
a(S'boom'
p7143
I2
tp7144
a(S'cutthroat'
p7145
I2
tp7146
a(S'gepetto'
p7147
I2
tp7148
a(S'billie'
p7149
I2
tp7150
a(S'nintendo'
p7151
I2
tp7152
a(S'rayshel'
p7153
I2
tp7154
a(S'webster'
p7155
I3
tp7156
a(S'jamaica'
p7157
I3
tp7158
a(S'holocaust'
p7159
I3
tp7160
a(S'second'
p7161
I3
tp7162
a(S'perfect'
p7163
I3
tp7164
a(S'hide'
p7165
I3
tp7166
a(S'drinkin'
p7167
I3
tp7168
a(S'pluto'
p7169
I3
tp7170
a(S'china'
p7171
I3
tp7172
a(S'glc'
p7173
I3
tp7174
a(S'walkin'
p7175
I3
tp7176
a(S'brr'
p7177
I3
tp7178
a(S'cocaine'
p7179
I3
tp7180
a(S'nine'
p7181
I3
tp7182
a(S'overthinkin'
p7183
I3
tp7184
a(S'nemo'
p7185
I3
tp7186
a(S'lincoln'
p7187
I3
tp7188
a(S'president'
p7189
I3
tp7190
a(S'harold'
p7191
I3
tp7192
a(S'wind'
p7193
I3
tp7194
a(S'diddy'
p7195
I3
tp7196
a(S'japan'
p7197
I3
tp7198
a(S'ima'
p7199
I3
tp7200
a(S'holdin'
p7201
I3
tp7202
a(S'bond'
p7203
I3
tp7204
a(S'diana'
p7205
I3
tp7206
a(S'aids'
p7207
I3
tp7208
a(S'pryor'
p7209
I3
tp7210
a(S'fred'
p7211
I3
tp7212
a(S'days'
p7213
I3
tp7214
a(S'shakur'
p7215
I3
tp7216
a(S'chiraq'
p7217
I3
tp7218
a(S'thick'
p7219
I3
tp7220
a(S'dwele'
p7221
I3
tp7222
a(S'rockin'
p7223
I3
tp7224
a(S'listen'
p7225
I3
tp7226
a(S'rakim'
p7227
I3
tp7228
a(S'boston'
p7229
I3
tp7230
a(S'mine'
p7231
I3
tp7232
a(S'ohhhh'
p7233
I3
tp7234
a(S'posner'
p7235
I3
tp7236
a(S'alarm'
p7237
I3
tp7238
a(S'spend'
p7239
I3
tp7240
a(S'asia'
p7241
I3
tp7242
a(S'than'
p7243
I3
tp7244
a(S'rico'
p7245
I3
tp7246
a(S'rich'
p7247
I3
tp7248
a(S'honda'
p7249
I3
tp7250
a(S'nasty'
p7251
I3
tp7252
a(S'chanel'
p7253
I3
tp7254
a(S'bar'
p7255
I3
tp7256
a(S'us'
p7257
I3
tp7258
a(S'skrrt'
p7259
I3
tp7260
a(S'drivin'
p7261
I3
tp7262
a(S'lupe'
p7263
I3
tp7264
a(S'carbon'
p7265
I3
tp7266
a(S'mcm'
p7267
I3
tp7268
a(S'catch'
p7269
I3
tp7270
a(S'tang'
p7271
I3
tp7272
a(S'fallon'
p7273
I3
tp7274
a(S'stevie'
p7275
I3
tp7276
a(S'seven'
p7277
I3
tp7278
a(S'mexico'
p7279
I3
tp7280
a(S'cyhi'
p7281
I3
tp7282
a(S'catholic'
p7283
I3
tp7284
a(S'bastard'
p7285
I3
tp7286
a(S'rome'
p7287
I3
tp7288
a(S'donnie'
p7289
I3
tp7290
a(S'victoria'
p7291
I3
tp7292
a(S'd-town'
p7293
I3
tp7294
a(S'simba'
p7295
I3
tp7296
a(S'bottom'
p7297
I3
tp7298
a(S'purple'
p7299
I3
tp7300
a(S'everything'
p7301
I3
tp7302
a(S'alexand'
p7303
I3
tp7304
a(S'cos'
p7305
I3
tp7306
a(S'calm'
p7307
I3
tp7308
a(S'heat'
p7309
I3
tp7310
a(S'usher'
p7311
I3
tp7312
a(S'somebody'
p7313
I3
tp7314
a(S'b-boys'
p7315
I3
tp7316
a(S'trip'
p7317
I3
tp7318
a(S'holla'
p7319
I3
tp7320
a(S'coretta'
p7321
I3
tp7322
a(S'muslims'
p7323
I3
tp7324
a(S'deepak'
p7325
I3
tp7326
a(S'jones'
p7327
I3
tp7328
a(S'fergie'
p7329
I3
tp7330
a(S'ron'
p7331
I3
tp7332
a(S'suicide'
p7333
I3
tp7334
a(S'southwest'
p7335
I3
tp7336
a(S'cook'
p7337
I3
tp7338
a(S'colin'
p7339
I3
tp7340
a(S'bon'
p7341
I3
tp7342
a(S'bob'
p7343
I3
tp7344
a(S'sky'
p7345
I3
tp7346
a(S'aye'
p7347
I3
tp7348
a(S'france'
p7349
I3
tp7350
a(S'saks'
p7351
I3
tp7352
a(S'ooo'
p7353
I3
tp7354
a(S'december'
p7355
I3
tp7356
a(S'bust'
p7357
I3
tp7358
a(S'write'
p7359
I3
tp7360
a(S'mag'
p7361
I3
tp7362
a(S'gap'
p7363
I3
tp7364
a(S'kurt'
p7365
I3
tp7366
a(S'lsd'
p7367
I3
tp7368
a(S'ahh'
p7369
I3
tp7370
a(S'boomin'
p7371
I3
tp7372
a(S'x16'
p7373
I3
tp7374
a(S'vogue'
p7375
I3
tp7376
a(S'en'
p7377
I3
tp7378
a(S'goose'
p7379
I3
tp7380
a(S'busta'
p7381
I3
tp7382
a(S'smalls'
p7383
I3
tp7384
a(S'crib'
p7385
I3
tp7386
a(S'little'
p7387
I3
tp7388
a(S'trayvon'
p7389
I3
tp7390
a(S'cops'
p7391
I3
tp7392
a(S'craig'
p7393
I3
tp7394
a(S'turner'
p7395
I3
tp7396
a(S'haya'
p7397
I3
tp7398
a(S'saw'
p7399
I3
tp7400
a(S'michelle'
p7401
I3
tp7402
a(S'rashid'
p7403
I3
tp7404
a(S'phil'
p7405
I3
tp7406
a(S'madison'
p7407
I3
tp7408
a(S'troy'
p7409
I3
tp7410
a(S'corner'
p7411
I3
tp7412
a(S'takin'
p7413
I3
tp7414
a(S'fifth'
p7415
I3
tp7416
a(S'let\xc3\xa2\xc2\x80\xc2\x99s'
p7417
I3
tp7418
a(S'welcome'
p7419
I3
tp7420
a(S'yeah..'
p7421
I3
tp7422
a(S'label'
p7423
I3
tp7424
a(S'jobs'
p7425
I3
tp7426
a(S'alexander'
p7427
I3
tp7428
a(S'mona'
p7429
I3
tp7430
a(S'uber'
p7431
I3
tp7432
a(S'howard'
p7433
I3
tp7434
a(S'porsche'
p7435
I3
tp7436
a(S'kay'
p7437
I3
tp7438
a(S'cobain'
p7439
I3
tp7440
a(S'kappa'
p7441
I3
tp7442
a(S'penthouse'
p7443
I3
tp7444
a(S'pay'
p7445
I3
tp7446
a(S'grammies'
p7447
I3
tp7448
a(S'heartbreak'
p7449
I3
tp7450
a(S'weed'
p7451
I3
tp7452
a(S'aiyyo'
p7453
I3
tp7454
a(S'lady'
p7455
I3
tp7456
a(S'fortune'
p7457
I3
tp7458
a(S'piece'
p7459
I3
tp7460
a(S'clay'
p7461
I3
tp7462
a(S'beverly'
p7463
I3
tp7464
a(S'i\xc3\xa2\xc2\x80\xc2\x99d'
p7465
I3
tp7466
a(S'tvs'
p7467
I3
tp7468
a(S'playin'
p7469
I3
tp7470
a(S'slick'
p7471
I3
tp7472
a(S'boat'
p7473
I3
tp7474
a(S'fightin'
p7475
I3
tp7476
a(S'ow'
p7477
I3
tp7478
a(S'jerusalem'
p7479
I3
tp7480
a(S'lou'
p7481
I3
tp7482
a(S'arguin'
p7483
I3
tp7484
a(S'what\xc3\xa2\xc2\x80\xc2\x99s'
p7485
I3
tp7486
a(S'jamaican'
p7487
I3
tp7488
a(S'gone'
p7489
I3
tp7490
a(S'immens'
p7491
I3
tp7492
a(S'cee-lo'
p7493
I3
tp7494
a(S'kickin'
p7495
I3
tp7496
a(S'corey'
p7497
I3
tp7498
a(S'bape'
p7499
I3
tp7500
a(S'nori'
p7501
I3
tp7502
a(S'angelou'
p7503
I3
tp7504
a(S'zero'
p7505
I3
tp7506
a(S'shoulda'
p7507
I3
tp7508
a(S'bible'
p7509
I3
tp7510
a(S'stella'
p7511
I3
tp7512
a(S'ohhhhh'
p7513
I3
tp7514
a(S'countin'
p7515
I3
tp7516
a(S'imagine'
p7517
I3
tp7518
a(S'ask'
p7519
I3
tp7520
a(S'eden'
p7521
I3
tp7522
a(S'mali'
p7523
I3
tp7524
a(S'hugh'
p7525
I3
tp7526
a(S'wiley'
p7527
I3
tp7528
a(S'ff'
p7529
I3
tp7530
a(S'planet'
p7531
I3
tp7532
a(S'marlon'
p7533
I3
tp7534
a(S'shore'
p7535
I3
tp7536
a(S'party'
p7537
I3
tp7538
a(S'dad'
p7539
I3
tp7540
a(S'marcus'
p7541
I3
tp7542
a(S'pan'
p7543
I3
tp7544
a(S'weeknd'
p7545
I3
tp7546
a(S'phi'
p7547
I3
tp7548
a(S'robert'
p7549
I3
tp7550
a(S'dirt'
p7551
I3
tp7552
a(S'margiela'
p7553
I3
tp7554
a(S'hermes'
p7555
I3
tp7556
a(S'shot'
p7557
I3
tp7558
a(S'american'
p7559
I3
tp7560
a(S'number'
p7561
I3
tp7562
a(S'mami'
p7563
I3
tp7564
a(S'gibraltar'
p7565
I3
tp7566
a(S'mhmm'
p7567
I3
tp7568
a(S'rappin'
p7569
I3
tp7570
a(S'dang'
p7571
I3
tp7572
a(S'video'
p7573
I3
tp7574
a(S'nothin'
p7575
I3
tp7576
a(S'philly'
p7577
I3
tp7578
a(S'serena'
p7579
I3
tp7580
a(S'cover'
p7581
I3
tp7582
a(S'gds'
p7583
I3
tp7584
a(S'paranoid'
p7585
I3
tp7586
a(S'him'
p7587
I3
tp7588
a(S'hype'
p7589
I3
tp7590
a(S'roley'
p7591
I3
tp7592
a(S'jada'
p7593
I3
tp7594
a(S'see'
p7595
I3
tp7596
a(S'close'
p7597
I3
tp7598
a(S'watchin'
p7599
I3
tp7600
a(S'vandross'
p7601
I3
tp7602
a(S'mikey'
p7603
I3
tp7604
a(S'secret'
p7605
I3
tp7606
a(S'throne'
p7607
I3
tp7608
a(S'juicy'
p7609
I3
tp7610
a(S'italy'
p7611
I3
tp7612
a(S'barnes'
p7613
I3
tp7614
a(S'county'
p7615
I3
tp7616
a(S'back'
p7617
I3
tp7618
a(S'bounce'
p7619
I3
tp7620
a(S'\xc3\xa2\xc2\x80\xc2\x93'
p7621
I3
tp7622
a(S'louboutin'
p7623
I3
tp7624
a(S'religion'
p7625
I3
tp7626
a(S'bo'
p7627
I3
tp7628
a(S'bj'
p7629
I3
tp7630
a(S'timbuck2'
p7631
I3
tp7632
a(S'santa'
p7633
I3
tp7634
a(S'faith'
p7635
I3
tp7636
a(S'chico'
p7637
I3
tp7638
a(S'pastor'
p7639
I3
tp7640
a(S'beemer'
p7641
I3
tp7642
a(S'kirk'
p7643
I3
tp7644
a(S'nico'
p7645
I3
tp7646
a(S'hova'
p7647
I3
tp7648
a(S'nice'
p7649
I3
tp7650
a(S'primetime'
p7651
I3
tp7652
a(S'vice'
p7653
I3
tp7654
a(S'barkley'
p7655
I3
tp7656
a(S'gossip'
p7657
I3
tp7658
a(S'hennessey'
p7659
I3
tp7660
a(S'garden'
p7661
I3
tp7662
a(S'gina'
p7663
I3
tp7664
a(S'ryan'
p7665
I3
tp7666
a(S'body'
p7667
I3
tp7668
a(S'kendrick'
p7669
I3
tp7670
a(S'let'
p7671
I3
tp7672
a(S'great'
p7673
I3
tp7674
a(S'apple'
p7675
I3
tp7676
a(S'lords'
p7677
I3
tp7678
a(S'worthy'
p7679
I3
tp7680
a(S'randy'
p7681
I3
tp7682
a(S'bonds'
p7683
I3
tp7684
a(S'pour'
p7685
I3
tp7686
a(S'aight'
p7687
I3
tp7688
a(S'lock'
p7689
I3
tp7690
a(S'sit'
p7691
I3
tp7692
a(S'six'
p7693
I3
tp7694
a(S'watch'
p7695
I3
tp7696
a(S'united'
p7697
I3
tp7698
a(S'klan'
p7699
I3
tp7700
a(S'jamila'
p7701
I3
tp7702
a(S'flex'
p7703
I3
tp7704
a(S'kiss'
p7705
I3
tp7706
a(S'front'
p7707
I3
tp7708
a(S'pam'
p7709
I3
tp7710
a(S'matrix'
p7711
I3
tp7712
a(S'o.j'
p7713
I3
tp7714
a(S'jessica'
p7715
I3
tp7716
a(S'hyundai'
p7717
I3
tp7718
a(S'andr\xc3\x83\xc2\xa9'
p7719
I3
tp7720
a(S'saul'
p7721
I3
tp7722
a(S'austin'
p7723
I3
tp7724
a(S'bieber'
p7725
I3
tp7726
a(S'ben'
p7727
I3
tp7728
a(S'tommy'
p7729
I3
tp7730
a(S'iver'
p7731
I3
tp7732
a(S'sv'
p7733
I3
tp7734
a(S'yellin'
p7735
I3
tp7736
a(S'p.o'
p7737
I3
tp7738
a(S'parks'
p7739
I3
tp7740
a(S'brand'
p7741
I3
tp7742
a(S'cosby'
p7743
I3
tp7744
a(S'aww'
p7745
I3
tp7746
a(S'jan'
p7747
I3
tp7748
a(S'jam'
p7749
I3
tp7750
a(S'workin'
p7751
I3
tp7752
a(S"seven-'leven"
p7753
I3
tp7754
a(S'ralph'
p7755
I3
tp7756
a(S"o'hare"
p7757
I3
tp7758
a(S'barbershop'
p7759
I3
tp7760
a(S'lord\xc3\xa2\xc2\x80\xc2\x99s'
p7761
I3
tp7762
a(S'c-double-o'
p7763
I3
tp7764
a(S'writin'
p7765
I3
tp7766
a(S'news'
p7767
I3
tp7768
a(S'ls'
p7769
I3
tp7770
a(S'erotica-ca-ca'
p7771
I3
tp7772
a(S'hmm'
p7773
I3
tp7774
a(S'partynextdoor'
p7775
I3
tp7776
a(S'foxx'
p7777
I3
tp7778
a(S'sade'
p7779
I3
tp7780
a(S'drink'
p7781
I3
tp7782
a(S'ikea'
p7783
I3
tp7784
a(S'off'
p7785
I3
tp7786
a(S'hurry'
p7787
I3
tp7788
a(S'nate'
p7789
I3
tp7790
a(S'stony'
p7791
I3
tp7792
a(S'knox'
p7793
I3
tp7794
a(S"who'd"
p7795
I3
tp7796
a(S'success'
p7797
I3
tp7798
a(S'twitter'
p7799
I3
tp7800
a(S'wendy'
p7801
I3
tp7802
a(S'betty'
p7803
I3
tp7804
a(S'choppin'
p7805
I3
tp7806
a(S'hi'
p7807
I3
tp7808
a(S'apollo'
p7809
I3
tp7810
a(S'glory'
p7811
I3
tp7812
a(S'universal'
p7813
I3
tp7814
a(S'jesse'
p7815
I3
tp7816
a(S'illinois'
p7817
I3
tp7818
a(S'derrick'
p7819
I3
tp7820
a(S'sick'
p7821
I3
tp7822
a(S'repeat'
p7823
I3
tp7824
a(S'krs-one'
p7825
I3
tp7826
a(S'poli'
p7827
I3
tp7828
a(S'dynasty'
p7829
I4
tp7830
a(S'whose'
p7831
I4
tp7832
a(S'pride'
p7833
I4
tp7834
a(S'school'
p7835
I4
tp7836
a(S'venus'
p7837
I4
tp7838
a(S'towkio'
p7839
I4
tp7840
a(S'dre'
p7841
I4
tp7842
a(S'reagan'
p7843
I4
tp7844
a(S'wars'
p7845
I4
tp7846
a(S'shoot'
p7847
I4
tp7848
a(S'mj'
p7849
I4
tp7850
a(S'bennett'
p7851
I4
tp7852
a(S'how'
p7853
I4
tp7854
a(S'hop'
p7855
I4
tp7856
a(S'davis'
p7857
I4
tp7858
a(S'hip-hop'
p7859
I4
tp7860
a(S'kenwood'
p7861
I4
tp7862
a(S'silver'
p7863
I4
tp7864
a(S'bullshitttin'
p7865
I4
tp7866
a(S'louder'
p7867
I4
tp7868
a(S'pelle'
p7869
I4
tp7870
a(S'bay'
p7871
I4
tp7872
a(S'christian'
p7873
I4
tp7874
a(S'muh'
p7875
I4
tp7876
a(S'lamar'
p7877
I4
tp7878
a(S'cop'
p7879
I4
tp7880
a(S'dave'
p7881
I4
tp7882
a(S'muthafucker'
p7883
I4
tp7884
a(S'is'
p7885
I4
tp7886
a(S'tha'
p7887
I4
tp7888
a(S'hills'
p7889
I4
tp7890
a(S'jefferson'
p7891
I4
tp7892
a(S'night'
p7893
I4
tp7894
a(S'right'
p7895
I4
tp7896
a(S'finna'
p7897
I4
tp7898
a(S'burn'
p7899
I4
tp7900
a(S'mtv'
p7901
I4
tp7902
a(S'minaj'
p7903
I4
tp7904
a(S'vietnam'
p7905
I4
tp7906
a(S'rod'
p7907
I4
tp7908
a(S'mile'
p7909
I4
tp7910
a(S'leave'
p7911
I4
tp7912
a(S'jumpman'
p7913
I4
tp7914
a(S'weezy'
p7915
I4
tp7916
a(S'gladys'
p7917
I4
tp7918
a(S'cassius'
p7919
I4
tp7920
a(S'nitty'
p7921
I4
tp7922
a(S'extra'
p7923
I4
tp7924
a(S'super'
p7925
I4
tp7926
a(S'club'
p7927
I4
tp7928
a(S'refrain'
p7929
I4
tp7930
a(S'pink'
p7931
I4
tp7932
a(S'b-i-g'
p7933
I4
tp7934
a(S'mad'
p7935
I4
tp7936
a(S'ludacris'
p7937
I4
tp7938
a(S'cole'
p7939
I4
tp7940
a(S'jim'
p7941
I4
tp7942
a(S'eu'
p7943
I4
tp7944
a(S'california'
p7945
I4
tp7946
a(S'think'
p7947
I4
tp7948
a(S'spoken'
p7949
I4
tp7950
a(S'mel'
p7951
I4
tp7952
a(S'spread'
p7953
I4
tp7954
a(S'hum'
p7955
I4
tp7956
a(S'x7'
p7957
I4
tp7958
a(S'dash'
p7959
I4
tp7960
a(S'allen'
p7961
I4
tp7962
a(S'ferrari'
p7963
I4
tp7964
a(S'hear'
p7965
I4
tp7966
a(S'motown'
p7967
I4
tp7968
a(S'shit..'
p7969
I4
tp7970
a(S'stain'
p7971
I4
tp7972
a(S'j.'
p7973
I4
tp7974
a(S'um'
p7975
I4
tp7976
a(S'ambrosius'
p7977
I4
tp7978
a(S'elvis'
p7979
I4
tp7980
a(S'\xc3\x83\xc2\xa9'
p7981
I4
tp7982
a(S'smilin'
p7983
I4
tp7984
a(S'in'
p7985
I4
tp7986
a(S'rover'
p7987
I4
tp7988
a(S'mcdonald'
p7989
I4
tp7990
a(S'seems'
p7991
I4
tp7992
a(S'rosa'
p7993
I4
tp7994
a(S'hopin'
p7995
I4
tp7996
a(S'willis'
p7997
I4
tp7998
a(S"d'uss\xc3\x83\xc2\x89"
p7999
I4
tp8000
a(S'stone'
p8001
I4
tp8002
a(S'ol'
p8003
I4
tp8004
a(S'oj'
p8005
I4
tp8006
a(S'ferris'
p8007
I4
tp8008
a(S'debarge'
p8009
I4
tp8010
a(S'johnny'
p8011
I4
tp8012
a(S'glock'
p8013
I4
tp8014
a(S'mase'
p8015
I4
tp8016
a(S'jerome'
p8017
I4
tp8018
a(S'berry'
p8019
I4
tp8020
a(S'thursday'
p8021
I4
tp8022
a(S'fat'
p8023
I4
tp8024
a(S'instagram'
p8025
I4
tp8026
a(S'nba'
p8027
I4
tp8028
a(S'mula'
p8029
I4
tp8030
a(S'pick'
p8031
I4
tp8032
a(S'myra'
p8033
I4
tp8034
a(S'africa'
p8035
I4
tp8036
a(S'eye'
p8037
I4
tp8038
a(S'yeahhhhhhhhhh'
p8039
I4
tp8040
a(S'nina'
p8041
I4
tp8042
a(S'blood'
p8043
I4
tp8044
a(S'roots'
p8045
I4
tp8046
a(S'style'
p8047
I4
tp8048
a(S'beyonce'
p8049
I4
tp8050
a(S'throwin'
p8051
I4
tp8052
a(S'hood'
p8053
I4
tp8054
a(S'mmm'
p8055
I4
tp8056
a(S'kobe'
p8057
I4
tp8058
a(S'miss'
p8059
I4
tp8060
a(S'killin'
p8061
I4
tp8062
a(S'foreman'
p8063
I4
tp8064
a(S'kan'
p8065
I4
tp8066
a(S'quem'
p8067
I4
tp8068
a(S'desiigner'
p8069
I4
tp8070
a(S'hip'
p8071
I4
tp8072
a(S'claimin'
p8073
I4
tp8074
a(S'fire'
p8075
I4
tp8076
a(S'understand'
p8077
I4
tp8078
a(S'fun'
p8079
I4
tp8080
a(S'menacin'
p8081
I4
tp8082
a(S'grand'
p8083
I4
tp8084
a(S'dark'
p8085
I4
tp8086
a(S'codeine'
p8087
I4
tp8088
a(S'spent'
p8089
I4
tp8090
a(S'press'
p8091
I4
tp8092
a(S'lexus'
p8093
I4
tp8094
a(S'cut'
p8095
I4
tp8096
a(S'source'
p8097
I4
tp8098
a(S'sittin'
p8099
I4
tp8100
a(S'bic'
p8101
I4
tp8102
a(S'electric'
p8103
I4
tp8104
a(S'blueprint'
p8105
I4
tp8106
a(S'savemoney'
p8107
I4
tp8108
a(S'boys'
p8109
I4
tp8110
a(S'up'
p8111
I4
tp8112
a(S'nat'
p8113
I4
tp8114
a(S'hello'
p8115
I4
tp8116
a(S'wave'
p8117
I4
tp8118
a(S'roll'
p8119
I4
tp8120
a(S'carter'
p8121
I4
tp8122
a(S'khalifa'
p8123
I4
tp8124
a(S'valee'
p8125
I4
tp8126
a(S'eminem'
p8127
I4
tp8128
a(S'scarface'
p8129
I4
tp8130
a(S'stand'
p8131
I4
tp8132
a(S'somethin'
p8133
I4
tp8134
a(S'houston'
p8135
I4
tp8136
a(S'blake'
p8137
I4
tp8138
a(S'truth'
p8139
I4
tp8140
a(S'theraflu'
p8141
I4
tp8142
a(S'marley'
p8143
I4
tp8144
a(S'matt'
p8145
I4
tp8146
a(S'misunderstood'
p8147
I4
tp8148
a(S'montana'
p8149
I4
tp8150
a(S'the-dream'
p8151
I4
tp8152
a(S'tired'
p8153
I4
tp8154
a(S'ho'
p8155
I4
tp8156
a(S'kweli'
p8157
I4
tp8158
a(S'rouge'
p8159
I4
tp8160
a(S'benzes'
p8161
I4
tp8162
a(S'jhen\xc3\x83\xc2\xa9'
p8163
I4
tp8164
a(S'grab'
p8165
I4
tp8166
a(S'marsha'
p8167
I4
tp8168
a(S'a.m.'
p8169
I4
tp8170
a(S'inhale'
p8171
I4
tp8172
a(S'atlanta'
p8173
I4
tp8174
a(S'ny'
p8175
I4
tp8176
a(S'jeff'
p8177
I4
tp8178
a(S'lake'
p8179
I4
tp8180
a(S'knowin'
p8181
I4
tp8182
a(S'rodeo'
p8183
I4
tp8184
a(S'washington'
p8185
I4
tp8186
a(S'bentley'
p8187
I4
tp8188
a(S'north'
p8189
I4
tp8190
a(S'coke'
p8191
I4
tp8192
a(S'akroyd'
p8193
I4
tp8194
a(S'\xc2\xbf'
p8195
I4
tp8196
a(S'u-a-c'
p8197
I4
tp8198
a(S'shirley'
p8199
I4
tp8200
a(S'kinda'
p8201
I4
tp8202
a(S'andre'
p8203
I5
tp8204
a(S'captain'
p8205
I5
tp8206
a(S'charles'
p8207
I5
tp8208
a(S'internet'
p8209
I5
tp8210
a(S'\xc3\xa2\xc2\x80\xc2\x98em'
p8211
I5
tp8212
a(S'air'
p8213
I5
tp8214
a(S'never'
p8215
I5
tp8216
a(S'wassup'
p8217
I5
tp8218
a(S'spike'
p8219
I5
tp8220
a(S'breathe'
p8221
I5
tp8222
a(S'oscar'
p8223
I5
tp8224
a(S'mo'
p8225
I5
tp8226
a(S'london'
p8227
I5
tp8228
a(S'kong'
p8229
I5
tp8230
a(S'chuck'
p8231
I5
tp8232
a(S'went'
p8233
I5
tp8234
a(S'ra'
p8235
I5
tp8236
a(S'chiddy'
p8237
I5
tp8238
a(S'bruce'
p8239
I5
tp8240
a(S'mario'
p8241
I5
tp8242
a(S'pinocchio'
p8243
I5
tp8244
a(S'do'
p8245
I5
tp8246
a(S'spirit'
p8247
I5
tp8248
a(S'hennessy'
p8249
I5
tp8250
a(S'hand'
p8251
I5
tp8252
a(S'tyson'
p8253
I5
tp8254
a(S'jean'
p8255
I5
tp8256
a(S'hah'
p8257
I5
tp8258
a(S'gave'
p8259
I5
tp8260
a(S'donald'
p8261
I5
tp8262
a(S'anderson'
p8263
I5
tp8264
a(S'purp'
p8265
I5
tp8266
a(S'g-o-d'
p8267
I5
tp8268
a(S'mister'
p8269
I5
tp8270
a(S'franklin'
p8271
I5
tp8272
a(S'ayo'
p8273
I5
tp8274
a(S'yusef'
p8275
I5
tp8276
a(S'heart'
p8277
I5
tp8278
a(S'b.i.g'
p8279
I5
tp8280
a(S'max'
p8281
I5
tp8282
a(S'shake'
p8283
I5
tp8284
a(S'flint'
p8285
I5
tp8286
a(S'blo'
p8287
I5
tp8288
a(S'million'
p8289
I5
tp8290
a(S'chevy'
p8291
I5
tp8292
a(S'first'
p8293
I5
tp8294
a(S'caught'
p8295
I5
tp8296
a(S'rza'
p8297
I5
tp8298
a(S'woah'
p8299
I5
tp8300
a(S'hoes'
p8301
I5
tp8302
a(S'x22'
p8303
I5
tp8304
a(S'tiger'
p8305
I5
tp8306
a(S'runnin'
p8307
I5
tp8308
a(S'sippin'
p8309
I5
tp8310
a(S'breakdown'
p8311
I5
tp8312
a(S'noah'
p8313
I5
tp8314
a(S'wall'
p8315
I5
tp8316
a(S'mom'
p8317
I5
tp8318
a(S'eddie'
p8319
I5
tp8320
a(S'felt'
p8321
I5
tp8322
a(S'francis'
p8323
I5
tp8324
a(S'ace'
p8325
I5
tp8326
a(S'island'
p8327
I5
tp8328
a(S'miguel'
p8329
I5
tp8330
a(S'sampha'
p8331
I5
tp8332
a(S'maserati'
p8333
I5
tp8334
a(S'pass'
p8335
I5
tp8336
a(S'dion'
p8337
I5
tp8338
a(S'chasin'
p8339
I5
tp8340
a(S'vernon'
p8341
I5
tp8342
a(S'motherfucker'
p8343
I5
tp8344
a(S'waitin'
p8345
I5
tp8346
a(S'jamie'
p8347
I5
tp8348
a(S'stones'
p8349
I5
tp8350
a(S'gold'
p8351
I5
tp8352
a(S'stoney'
p8353
I5
tp8354
a(S'mercy'
p8355
I5
tp8356
a(S'luke'
p8357
I5
tp8358
a(S'i-i'
p8359
I5
tp8360
a(S'sef'
p8361
I5
tp8362
a(S'europe'
p8363
I5
tp8364
a(S'beyonc\xc3\x83\xc2\xa9'
p8365
I5
tp8366
a(S'drunk'
p8367
I5
tp8368
a(S'freeway'
p8369
I5
tp8370
a(S'crack'
p8371
I5
tp8372
a(S'funny'
p8373
I5
tp8374
a(S'sam'
p8375
I5
tp8376
a(S'toyota'
p8377
I5
tp8378
a(S'fake'
p8379
I5
tp8380
a(S'mrs.'
p8381
I5
tp8382
a(S'range'
p8383
I5
tp8384
a(S'long'
p8385
I5
tp8386
a(S'malik'
p8387
I5
tp8388
a(S'gang'
p8389
I5
tp8390
a(S'thelonious'
p8391
I5
tp8392
a(S'hyde'
p8393
I5
tp8394
a(S'victor'
p8395
I5
tp8396
a(S'wiz'
p8397
I5
tp8398
a(S'control'
p8399
I5
tp8400
a(S'gurl'
p8401
I5
tp8402
a(S'standin'
p8403
I5
tp8404
a(S'cruise'
p8405
I5
tp8406
a(S'female'
p8407
I5
tp8408
a(S'chatham'
p8409
I5
tp8410
a(S'ogs'
p8411
I5
tp8412
a(S'rollie'
p8413
I5
tp8414
a(S'tonight'
p8415
I5
tp8416
a(S'pete'
p8417
I5
tp8418
a(S'we'
p8419
I5
tp8420
a(S'ken'
p8421
I5
tp8422
a(S'puff'
p8423
I5
tp8424
a(S'l.a'
p8425
I5
tp8426
a(S'smith'
p8427
I5
tp8428
a(S'petey'
p8429
I5
tp8430
a(S'home'
p8431
I5
tp8432
a(S'three'
p8433
I5
tp8434
a(S'eat'
p8435
I5
tp8436
a(S'adam'
p8437
I5
tp8438
a(S'june'
p8439
I5
tp8440
a(S'ave'
p8441
I5
tp8442
a(S'woods'
p8443
I6
tp8444
a(S'christ'
p8445
I6
tp8446
a(S'barry'
p8447
I6
tp8448
a(S'hurt'
p8449
I6
tp8450
a(S'must'
p8451
I6
tp8452
a(S'david'
p8453
I6
tp8454
a(S'natalie'
p8455
I6
tp8456
a(S'jigga'
p8457
I6
tp8458
a(S'cadillac'
p8459
I6
tp8460
a(S'lax'
p8461
I6
tp8462
a(S'allah'
p8463
I6
tp8464
a(S'westside'
p8465
I6
tp8466
a(S'flow'
p8467
I6
tp8468
a(S'capitol'
p8469
I6
tp8470
a(S'hammer'
p8471
I6
tp8472
a(S'smokin'
p8473
I6
tp8474
a(S'afrodisiac'
p8475
I6
tp8476
a(S'voice'
p8477
I6
tp8478
a(S'left'
p8479
I6
tp8480
a(S'fox'
p8481
I6
tp8482
a(S'gim'
p8483
I6
tp8484
a(S'uncle'
p8485
I6
tp8486
a(S'don\xc3\xa2\xc2\x80\xc2\x99t'
p8487
I6
tp8488
a(S'cool'
p8489
I6
tp8490
a(S'laughin'
p8491
I6
tp8492
a(S'prez'
p8493
I6
tp8494
a(S'roscoe'
p8495
I6
tp8496
a(S'can'
p8497
I6
tp8498
a(S'bawitdaba'
p8499
I6
tp8500
a(S'trump'
p8501
I6
tp8502
a(S'-ow'
p8503
I6
tp8504
a(S'feelin'
p8505
I6
tp8506
a(S'son'
p8507
I6
tp8508
a(S'drop'
p8509
I6
tp8510
a(S"'em"
p8511
I6
tp8512
a(S'grammys'
p8513
I6
tp8514
a(S'hudson'
p8515
I6
tp8516
a(S'polo'
p8517
I6
tp8518
a(S'forever'
p8519
I6
tp8520
a(S'peace'
p8521
I6
tp8522
a(S'tellin'
p8523
I6
tp8524
a(S'dirty'
p8525
I6
tp8526
a(S'ohh'
p8527
I6
tp8528
a(S'al'
p8529
I6
tp8530
a(S'imma'
p8531
I6
tp8532
a(S'hill'
p8533
I6
tp8534
a(S'louie'
p8535
I6
tp8536
a(S'richard'
p8537
I6
tp8538
a(S'adidas'
p8539
I6
tp8540
a(S'dior'
p8541
I6
tp8542
a(S'dee'
p8543
I6
tp8544
a(S'joey'
p8545
I6
tp8546
a(S'pablo'
p8547
I6
tp8548
a(S'st.'
p8549
I6
tp8550
a(S'lit'
p8551
I6
tp8552
a(S'caesar'
p8553
I6
tp8554
a(S'play'
p8555
I6
tp8556
a(S'ciroc'
p8557
I6
tp8558
a(S'find'
p8559
I6
tp8560
a(S'pretty'
p8561
I6
tp8562
a(S'juke'
p8563
I6
tp8564
a(S'alicia'
p8565
I6
tp8566
a(S'equinox'
p8567
I6
tp8568
a(S'champagne'
p8569
I6
tp8570
a(S'mind'
p8571
I6
tp8572
a(S'keys'
p8573
I6
tp8574
a(S'miami'
p8575
I6
tp8576
a(S'wishin'
p8577
I6
tp8578
a(S'auntie'
p8579
I6
tp8580
a(S'larry'
p8581
I6
tp8582
a(S'phantom'
p8583
I6
tp8584
a(S'desert'
p8585
I6
tp8586
a(S'hella'
p8587
I6
tp8588
a(S'acid'
p8589
I6
tp8590
a(S'use'
p8591
I6
tp8592
a(S'illuminati'
p8593
I6
tp8594
a(S'leavin'
p8595
I6
tp8596
a(S'jill'
p8597
I6
tp8598
a(S'muhammad'
p8599
I6
tp8600
a(S'sosa'
p8601
I6
tp8602
a(S'liquor'
p8603
I6
tp8604
a(S'bet'
p8605
I6
tp8606
a(S'chief'
p8607
I6
tp8608
a(S'immenslope'
p8609
I6
tp8610
a(S'travis'
p8611
I6
tp8612
a(S'state'
p8613
I6
tp8614
a(S'cb'
p8615
I6
tp8616
a(S'caddy'
p8617
I6
tp8618
a(S'fauntleroy'
p8619
I6
tp8620
a(S'will'
p8621
I6
tp8622
a(S'versace'
p8623
I6
tp8624
a(S'rare'
p8625
I6
tp8626
a(S'blue'
p8627
I7
tp8628
a(S'dr.'
p8629
I7
tp8630
a(S'cali'
p8631
I7
tp8632
a(S'tryin'
p8633
I7
tp8634
a(S'jacob'
p8635
I7
tp8636
a(S'better'
p8637
I7
tp8638
a(S'came'
p8639
I7
tp8640
a(S'd.'
p8641
I7
tp8642
a(S'bush'
p8643
I7
tp8644
a(S'nike'
p8645
I7
tp8646
a(S'kim'
p8647
I7
tp8648
a(S'just'
p8649
I7
tp8650
a(S'dreams'
p8651
I7
tp8652
a(S'ice'
p8653
I7
tp8654
a(S"i'm-i"
p8655
I7
tp8656
a(S'war'
p8657
I7
tp8658
a(S'vegas'
p8659
I7
tp8660
a(S'ridin'
p8661
I7
tp8662
a(S'live'
p8663
I7
tp8664
a(S'cold'
p8665
I7
tp8666
a(S'texas'
p8667
I7
tp8668
a(S'fast'
p8669
I7
tp8670
a(S'x6'
p8671
I7
tp8672
a(S'dick'
p8673
I7
tp8674
a(S'pimp'
p8675
I7
tp8676
a(S'goodbye'
p8677
I7
tp8678
a(S'twista'
p8679
I7
tp8680
a(S'rest'
p8681
I7
tp8682
a(S'hustle'
p8683
I7
tp8684
a(S'og'
p8685
I7
tp8686
a(S'aw'
p8687
I7
tp8688
a(S'alright'
p8689
I7
tp8690
a(S'lisa'
p8691
I7
tp8692
a(S"c'mon"
p8693
I7
tp8694
a(S'caravan'
p8695
I7
tp8696
a(S'town'
p8697
I7
tp8698
a(S'drake'
p8699
I7
tp8700
a(S'house'
p8701
I7
tp8702
a(S'clique'
p8703
I7
tp8704
a(S'hundred'
p8705
I7
tp8706
a(S'lauryn'
p8707
I7
tp8708
a(S'pj'
p8709
I7
tp8710
a(S'whoa'
p8711
I7
tp8712
a(S'bill'
p8713
I7
tp8714
a(S'syd'
p8715
I7
tp8716
a(S'jimmy'
p8717
I7
tp8718
a(S'chi-town'
p8719
I7
tp8720
a(S'biggie'
p8721
I7
tp8722
a(S'hampton'
p8723
I7
tp8724
a(S'red'
p8725
I7
tp8726
a(S'keep'
p8727
I7
tp8728
a(S'lamborghini'
p8729
I7
tp8730
a(S'bring'
p8731
I7
tp8732
a(S'rocafella'
p8733
I7
tp8734
a(S'hope'
p8735
I7
tp8736
a(S'michigan'
p8737
I7
tp8738
a(S'mercedes'
p8739
I7
tp8740
a(S'i.d.'
p8741
I7
tp8742
a(S'motherfuck'
p8743
I7
tp8744
a(S'peter'
p8745
I7
tp8746
a(S'ford'
p8747
I7
tp8748
a(S'goin'
p8749
I7
tp8750
a(S'allllll..'
p8751
I8
tp8752
a(S'smoke'
p8753
I8
tp8754
a(S'oprah'
p8755
I8
tp8756
a(S'comin'
p8757
I8
tp8758
a(S'took'
p8759
I8
tp8760
a(S'ray'
p8761
I8
tp8762
a(S'maybach'
p8763
I8
tp8764
a(S'errthang'
p8765
I8
tp8766
a(S'pullin'
p8767
I8
tp8768
a(S'true'
p8769
I8
tp8770
a(S'tim'
p8771
I8
tp8772
a(S'innanet'
p8773
I8
tp8774
a(S'bow'
p8775
I8
tp8776
a(S'boi'
p8777
I8
tp8778
a(S'dude'
p8779
I8
tp8780
a(S'brain'
p8781
I8
tp8782
a(S'kane'
p8783
I8
tp8784
a(S'erykah'
p8785
I8
tp8786
a(S'sierra'
p8787
I8
tp8788
a(S'lyte'
p8789
I8
tp8790
a(S'sex'
p8791
I8
tp8792
a(S'thinkin'
p8793
I8
tp8794
a(S'breeze'
p8795
I8
tp8796
a(S'nas'
p8797
I8
tp8798
a(S'ross'
p8799
I8
tp8800
a(S'hallelujah'
p8801
I8
tp8802
a(S'taste'
p8803
I8
tp8804
a(S'ak'
p8805
I8
tp8806
a(S'ham'
p8807
I8
tp8808
a(S'ali'
p8809
I8
tp8810
a(S'what'
p8811
I8
tp8812
a(S'sun'
p8813
I8
tp8814
a(S'jeezy'
p8815
I8
tp8816
a(S'guess'
p8817
I8
tp8818
a(S'wilson'
p8819
I8
tp8820
a(S'summer'
p8821
I8
tp8822
a(S'henny'
p8823
I8
tp8824
a(S'game'
p8825
I8
tp8826
a(S'doin'
p8827
I8
tp8828
a(S'bigs'
p8829
I8
tp8830
a(S'aunt'
p8831
I8
tp8832
a(S'tap'
p8833
I8
tp8834
a(S'light'
p8835
I8
tp8836
a(S'move'
p8837
I8
tp8838
a(S'york'
p8839
I8
tp8840
a(S'robocop'
p8841
I8
tp8842
a(S'hiphop'
p8843
I8
tp8844
a(S'makin'
p8845
I8
tp8846
a(S'lambo'
p8847
I8
tp8848
a(S'nicki'
p8849
I8
tp8850
a(S'heidi'
p8851
I8
tp8852
a(S'luther'
p8853
I9
tp8854
a(S'mr'
p8855
I9
tp8856
a(S'r.'
p8857
I9
tp8858
a(S'interlude'
p8859
I9
tp8860
a(S'tom'
p8861
I9
tp8862
a(S'rolex'
p8863
I9
tp8864
a(S'lookin'
p8865
I9
tp8866
a(S'save'
p8867
I9
tp8868
a(S'id'
p8869
I9
tp8870
a(S'mother'
p8871
I9
tp8872
a(S'bobby'
p8873
I9
tp8874
a(S'badu'
p8875
I9
tp8876
a(S'til'
p8877
I9
tp8878
a(S'rough'
p8879
I9
tp8880
a(S'iahhhhh'
p8881
I9
tp8882
a(S'russell'
p8883
I9
tp8884
a(S'police'
p8885
I9
tp8886
a(S'el'
p8887
I9
tp8888
a(S'joseph'
p8889
I9
tp8890
a(S'x8'
p8891
I9
tp8892
a(S'knew'
p8893
I9
tp8894
a(S'wonder'
p8895
I9
tp8896
a(S'twilite'
p8897
I9
tp8898
a(S'chardonnay'
p8899
I9
tp8900
a(S'dilla'
p8901
I9
tp8902
a(S'i\xc3\xa2\xc2\x80\xc2\x99ve'
p8903
I9
tp8904
a(S'brother'
p8905
I9
tp8906
a(S'uh-huh'
p8907
I9
tp8908
a(S'friday'
p8909
I9
tp8910
a(S'infinite'
p8911
I9
tp8912
a(S'obama'
p8913
I9
tp8914
a(S'famous'
p8915
I9
tp8916
a(S'momma'
p8917
I9
tp8918
a(S'dog'
p8919
I9
tp8920
a(S'fresh'
p8921
I9
tp8922
a(S'steve'
p8923
I9
tp8924
a(S'magic'
p8925
I9
tp8926
a(S'i\xc3\xa2\xc2\x80\xc2\x99mma'
p8927
I9
tp8928
a(S'keef'
p8929
I9
tp8930
a(S'motha'
p8931
I9
tp8932
a(S'l.a.'
p8933
I9
tp8934
a(S'thought'
p8935
I9
tp8936
a(S'angeles'
p8937
I9
tp8938
a(S'whether'
p8939
I9
tp8940
a(S'beatz'
p8941
I9
tp8942
a(S'star'
p8943
I9
tp8944
a(S'word'
p8945
I10
tp8946
a(S'hoe'
p8947
I10
tp8948
a(S'girls'
p8949
I10
tp8950
a(S'rihanna'
p8951
I10
tp8952
a(S'prada'
p8953
I10
tp8954
a(S'los'
p8955
I10
tp8956
a(S'ain\xc3\xa2\xc2\x80\xc2\x99t'
p8957
I10
tp8958
a(S'ocean'
p8959
I10
tp8960
a(S'laquan'
p8961
I10
tp8962
a(S'head'
p8963
I10
tp8964
a(S'daddy'
p8965
I10
tp8966
a(S'soul'
p8967
I10
tp8968
a(S'ms.'
p8969
I10
tp8970
a(S'sample'
p8971
I10
tp8972
a(S'mac'
p8973
I10
tp8974
a(S'yup'
p8975
I10
tp8976
a(S'kill'
p8977
I10
tp8978
a(S'rose'
p8979
I10
tp8980
a(S'killa'
p8981
I10
tp8982
a(S'am'
p8983
I10
tp8984
a(S'pac'
p8985
I10
tp8986
a(S'grammy'
p8987
I10
tp8988
a(S'teyana'
p8989
I10
tp8990
a(S'chano'
p8991
I10
tp8992
a(S'shut'
p8993
I10
tp8994
a(S'could'
p8995
I10
tp8996
a(S'thug'
p8997
I10
tp8998
a(S'oooh'
p8999
I11
tp9000
a(S'that\xc3\xa2\xc2\x80\xc2\x99s'
p9001
I11
tp9002
a(S'want'
p9003
I11
tp9004
a(S'harlem'
p9005
I11
tp9006
a(S'rap'
p9007
I11
tp9008
a(S'queen'
p9009
I11
tp9010
a(S'tony'
p9011
I11
tp9012
a(S'swizz'
p9013
I11
tp9014
a(S'way'
p9015
I11
tp9016
a(S"d'angelo"
p9017
I11
tp9018
a(S'crazy'
p9019
I11
tp9020
a(S'ghetto'
p9021
I11
tp9022
a(S'grandma'
p9023
I11
tp9024
a(S'george'
p9025
I11
tp9026
a(S'middle'
p9027
I11
tp9028
a(S'pusha'
p9029
I11
tp9030
a(S'pharrell'
p9031
I11
tp9032
a(S'scott'
p9033
I11
tp9034
a(S'good'
p9035
I11
tp9036
a(S'kelly'
p9037
I11
tp9038
a(S'prince'
p9039
I11
tp9040
a(S'dame'
p9041
I11
tp9042
a(S'lebron'
p9043
I11
tp9044
a(S'suga'
p9045
I11
tp9046
a(S'satan'
p9047
I11
tp9048
a(S'malcolm'
p9049
I11
tp9050
a(S'taylor'
p9051
I11
tp9052
a(S'paul'
p9053
I11
tp9054
a(S'chainz'
p9055
I11
tp9056
a(S'jhene'
p9057
I11
tp9058
a(S'pussy'
p9059
I11
tp9060
a(S'dug'
p9061
I11
tp9062
a(S'sorry'
p9063
I12
tp9064
a(S'holy'
p9065
I12
tp9066
a(S'break'
p9067
I12
tp9068
a(S'too'
p9069
I12
tp9070
a(S'earth'
p9071
I12
tp9072
a(S'rick'
p9073
I12
tp9074
a(S'stop'
p9075
I12
tp9076
a(S'tone'
p9077
I12
tp9078
a(S'charlie'
p9079
I12
tp9080
a(S'faithful'
p9081
I12
tp9082
a(S'wait'
p9083
I12
tp9084
a(S'williams'
p9085
I12
tp9086
a(S'southside'
p9087
I12
tp9088
a(S'trick'
p9089
I12
tp9090
a(S'igh'
p9091
I12
tp9092
a(S'\xc3\xa2\xc2\x80\xc2\x94'
p9093
I12
tp9094
a(S'mu-u-u-u-murderer'
p9095
I12
tp9096
a(S'hard'
p9097
I12
tp9098
a(S'ass'
p9099
I12
tp9100
a(S'so'
p9101
I12
tp9102
a(S'park'
p9103
I12
tp9104
a(S'leone'
p9105
I12
tp9106
a(S'lee'
p9107
I12
tp9108
a(S'beat'
p9109
I12
tp9110
a(S'justin'
p9111
I12
tp9112
a(S'east'
p9113
I13
tp9114
a(S'christmas'
p9115
I13
tp9116
a(S'may'
p9117
I13
tp9118
a(S'world'
p9119
I13
tp9120
a(S'dolla'
p9121
I13
tp9122
a(S'feel'
p9123
I13
tp9124
a(S'assata'
p9125
I13
tp9126
a(S'aiko'
p9127
I13
tp9128
a(S'gaye'
p9129
I13
tp9130
a(S'well'
p9131
I13
tp9132
a(S'devil'
p9133
I13
tp9134
a(S'bang'
p9135
I14
tp9136
a(S'choir'
p9137
I14
tp9138
a(S'gon'
p9139
I14
tp9140
a(S'mcs'
p9141
I14
tp9142
a(S'old'
p9143
I14
tp9144
a(S'na'
p9145
I14
tp9146
a(S'broke'
p9147
I14
tp9148
a(S'father'
p9149
I14
tp9150
a(S'ayy'
p9151
I14
tp9152
a(S'show'
p9153
I14
tp9154
a(S'g.o.o.d'
p9155
I14
tp9156
a(S'you'
p9157
I14
tp9158
a(S'believe'
p9159
I14
tp9160
a(S'dan'
p9161
I14
tp9162
a(S'frank'
p9163
I14
tp9164
a(S'livin'
p9165
I14
tp9166
a(S'martin'
p9167
I14
tp9168
a(S'street'
p9169
I15
tp9170
a(S'oo..we'
p9171
I15
tp9172
a(S'vuitton'
p9173
I15
tp9174
a(S'no'
p9175
I15
tp9176
a(S'till'
p9177
I15
tp9178
a(S'sunday'
p9179
I15
tp9180
a(S'yeah'
p9181
I15
tp9182
a(S'turn'
p9183
I15
tp9184
a(S'canibus'
p9185
I15
tp9186
a(S'act'
p9187
I15
tp9188
a(S'deep'
p9189
I15
tp9190
a(S'ty'
p9191
I15
tp9192
a(S'wayne'
p9193
I15
tp9194
a(S'i\xc3\xa2\xc2\x80\xc2\x99ll'
p9195
I15
tp9196
a(S'high'
p9197
I15
tp9198
a(S'day'
p9199
I15
tp9200
a(S'shorty'
p9201
I15
tp9202
a(S'joe'
p9203
I15
tp9204
a(S'marvin'
p9205
I16
tp9206
a(S'stick'
p9207
I16
tp9208
a(S'paris'
p9209
I17
tp9210
a(S'hollywood'
p9211
I17
tp9212
a(S'been'
p9213
I17
tp9214
a(S'erotica'
p9215
I17
tp9216
a(S'alllllll'
p9217
I17
tp9218
a(S'drive'
p9219
I17
tp9220
a(S'mary'
p9221
I17
tp9222
a(S'cudi'
p9223
I17
tp9224
a(S'jordan'
p9225
I17
tp9226
a(S'juice'
p9227
I17
tp9228
a(S'ball'
p9229
I17
tp9230
a(S'jack'
p9231
I18
tp9232
a(S'hov'
p9233
I18
tp9234
a(S'love'
p9235
I18
tp9236
a(S'bam'
p9237
I18
tp9238
a(S'time'
p9239
I18
tp9240
a(S'ay'
p9241
I18
tp9242
a(S'might'
p9243
I18
tp9244
a(S'ohhh'
p9245
I18
tp9246
a(S'side'
p9247
I19
tp9248
a(S'x3'
p9249
I19
tp9250
a(S'jackson'
p9251
I20
tp9252
a(S'white'
p9253
I20
tp9254
a(S'hit'
p9255
I20
tp9256
a(S'straight'
p9257
I20
tp9258
a(S'mike'
p9259
I20
tp9260
a(S'geto'
p9261
I20
tp9262
a(S'stay'
p9263
I20
tp9264
a(S'hot'
p9265
I22
tp9266
a(S'jay-z'
p9267
I22
tp9268
a(S'cam'
p9269
I22
tp9270
a(S'mos'
p9271
I22
tp9272
a(S'chris'
p9273
I22
tp9274
a(S'i.d'
p9275
I22
tp9276
a(S'def'
p9277
I22
tp9278
a(S'it\xc3\xa2\xc2\x80\xc2\x99s'
p9279
I22
tp9280
a(S'kid'
p9281
I23
tp9282
a(S'sense'
p9283
I23
tp9284
a(S'roc'
p9285
I23
tp9286
a(S'run'
p9287
I23
tp9288
a(S'nah'
p9289
I23
tp9290
a(S'michael'
p9291
I23
tp9292
a(S'remember'
p9293
I24
tp9294
a(S'rollin'
p9295
I24
tp9296
a(S'thank'
p9297
I24
tp9298
a(S'james'
p9299
I24
tp9300
a(S'city'
p9301
I24
tp9302
a(S'louis'
p9303
I25
tp9304
a(S'hell'
p9305
I25
tp9306
a(S'king'
p9307
I25
tp9308
a(S'metro'
p9309
I25
tp9310
a(S'bilal'
p9311
I25
tp9312
a(S'gucci'
p9313
I25
tp9314
a(S'down'
p9315
I26
tp9316
a(S'huh'
p9317
I26
tp9318
a(S'ok'
p9319
I26
tp9320
a(S'south'
p9321
I26
tp9322
a(S'hold'
p9323
I27
tp9324
a(S'mama'
p9325
I27
tp9326
a(S'life'
p9327
I27
tp9328
a(S'okay'
p9329
I28
tp9330
a(S'x4'
p9331
I30
tp9332
a(S'detroit'
p9333
I30
tp9334
a(S'heaven'
p9335
I30
tp9336
a(S'benz'
p9337
I31
tp9338
a(S'chance'
p9339
I31
tp9340
a(S'legend'
p9341
I32
tp9342
a(S'boy'
p9343
I32
tp9344
a(S'brown'
p9345
I33
tp9346
a(S'mr.'
p9347
I33
tp9348
a(S'sweet'
p9349
I33
tp9350
a(S'man'
p9351
I34
tp9352
a(S'look'
p9353
I34
tp9354
a(S'please'
p9355
I35
tp9356
a(S'music'
p9357
I36
tp9358
a(S'ye'
p9359
I36
tp9360
a(S'don'
p9361
I37
tp9362
a(S'new'
p9363
I37
tp9364
a(S'x2'
p9365
I38
tp9366
a(S'jay'
p9367
I39
tp9368
a(S'com'
p9369
I40
tp9370
a(S'john'
p9371
I44
tp9372
a(S'are'
p9373
I44
tp9374
a(S'go'
p9375
I44
tp9376
a(S'america'
p9377
I45
tp9378
a(S'freedom'
p9379
I45
tp9380
a(S'mc'
p9381
I49
tp9382
a(S'yeezy'
p9383
I52
tp9384
a(S'big'
p9385
I54
tp9386
a(S'rapper'
p9387
I54
tp9388
a(S'get'
p9389
I57
tp9390
a(S'chi'
p9391
I59
tp9392
a(S'come'
p9393
I62
tp9394
a(S'chicago'
p9395
I63
tp9396
a(S'mensa'
p9397
I66
tp9398
a(S'jesus'
p9399
I86
tp9400
a(S'la'
p9401
I98
tp9402
a(S'vic'
p9403
I100
tp9404
a(S'sean'
p9405
I131
tp9406
a(S'common'
p9407
I213
tp9408
a(S'west'
p9409
I271
tp9410
a(S'kanye'
p9411
I331
tp9412
a.